(dp0
S'ms_chloroplast_malate_exchange'
p1
(lp2
F-137.4997134903925
aF1000.0000045313415
asS'bs_EC_2_4_1_82'
p3
(lp4
F7.366082113944303e-06
aF999.9999998541062
asS'bs_peroxisome_glutamate_exchange'
p5
(lp6
F1.8715105735303908e-06
aF40.74785234790355
asS'bs_NitrogenousBiomassSink'
p7
(lp8
F6.238210945495176e-05
aF14.082701911537086
asS'ms_sink_SUCROSE'
p9
(lp10
F1.8350363834902404e-06
aF1000.0000082521748
asS'ms_sink_ASN'
p11
(lp12
F1.844009946986707e-06
aF999.8374488746865
asS'bs__2TRANSKETO_RXN'
p13
(lp14
F-449.91803711691773
aF333.3331737174123
asS'bs_DIPHOSPHOMEVALONTE_DECARBOXYLASE_RXN'
p15
(lp16
F1.134646972023208e-05
aF44.81790834660897
asS'ms_RXN_2622'
p17
(lp18
F5.565758495036926e-06
aF321.3051558299231
asS'bs_MALATE_DEH_RXN_mitochondrion'
p19
(lp20
F-874.9998472177903
aF156.8635592822171
asS'ms_DIHYDROXYISOVALDEHYDRAT_RXN'
p21
(lp22
F6.888344497244046e-05
aF1000.0000046125422
asS'bs_sink_Xylogalacturonan_monomer_equivalent'
p23
(lp24
F3.6980645091236873e-06
aF499.9999349406565
asS'ms_RXN_3523_chloroplast'
p25
(lp26
F5.529980691392129e-06
aF274.99993340389665
asS'bs_RXN_9514'
p27
(lp28
F0.00021380641556397782
aF142.85700389963685
asS'bs_CMPKI_RXN'
p29
(lp30
F5.8265980602612184e-05
aF1000.0000082098494
asS'bs_RXN_9518'
p31
(lp32
F0.00021380641390253828
aF142.85698170380118
asS'bs_RXN_2601'
p33
(lp34
F5.620759715560606e-06
aF39.215572020792216
asS'ms_N_ACETYLGLUTPREDUCT_RXN'
p35
(lp36
F1.1085494376526675e-05
aF1000.0000045479549
asS'bs_chloroplast_pyruvate_exchange'
p37
(lp38
F-1000.0000044784011
aF117.85687805903565
asS'bs_GLUTATHIONE_SYN_RXN'
p39
(lp40
F3.7064116973253413e-06
aF1000.0000081818553
asS'ms_PhotosystemI_mod_chloroplast'
p41
(lp42
F1.8334013453713191e-06
aF549.999929287815
asS'bs_RXN0_1134'
p43
(lp44
F5.524936909641202e-06
aF1000.0000045620611
asS'ms_MALATE_DEH_RXN_mitochondrion'
p45
(lp46
F-874.999839209233
aF299.99983249646334
asS'ms_AICARSYN_RXN'
p47
(lp48
F0.00010042866746124758
aF145.452645219215
asS'plasmodesmata_ms_GLUTATHIONE_bs_GLUTATHIONE'
p49
(lp50
F-1000.0000007831054
aF1000.000000876676
asS'bs_RXN0_1132'
p51
(lp52
F5.524936909112165e-06
aF1000.000004562061
asS'bs_RXN0_1133'
p53
(lp54
F5.524936903060311e-06
aF1000.000004562061
asS'ms_MALATE_DEH_RXN_peroxisome'
p55
(lp56
F3.66385257457311e-06
aF40.05332063372265
asS'bs_ASNSYNB_RXN'
p57
(lp58
F-1000.0000044611248
aF840.9591909135812
asS'bs_FRUCTOKINASE_RXN'
p59
(lp60
F1.8154288104784539e-06
aF1000.0000081644004
asS'ms_RXN66_1'
p61
(lp62
F1.835669155121855e-06
aF999.9995992297422
asS'bs_chloroplast_abstract_ferredoxin_exchange'
p63
(lp64
F0.00018258495103518416
aF1000.0000081573195
asS'ms_CYSTATHIONINE_BETA_LYASE_RXN'
p65
(lp66
F5.148482690667387e-05
aF949.2265436432517
asS'bs_MMUM_RXN'
p67
(lp68
F1.8373718561528064e-06
aF1000.0000081735691
asS'bs_EC_6_2_1_12'
p69
(lp70
F8.591337689728938e-05
aF78.43157656035221
asS'bs_ASPCARBTRANS_RXN'
p71
(lp72
F0.00010316494969629057
aF156.86360115704863
asS'bs_ACETOLACTREDUCTOISOM_RXN'
p73
(lp74
F5.543154419450423e-06
aF1000.0000045519604
asS'ms_mitochondrion_pyruvate_exchange'
p75
(lp76
F8.567609630675752e-05
aF649.99987046212
asS'bs_CARBPSYN_RXN'
p77
(lp78
F1.8400369638690275e-06
aF967.8856395534717
asS'ms_PRPPSYN_RXN'
p79
(lp80
F0.000140099043437974
aF450.27837822424704
asS'bs_RXN_7609'
p81
(lp82
F4.607407296810923e-05
aF2.3176601319529126
asS'ms_METHENYLTHFCYCLOHYDRO_RXN'
p83
(lp84
F0.00012722280650495928
aF393.4084329446476
asS'bs_GUANPRIBOSYLTRAN_RXN'
p85
(lp86
F4.6074072970588806e-05
aF2.317656544000801
asS'bs_SUCROSE_PHOSPHATE_SYNTHASE_RXN'
p87
(lp88
F3.689154807729703e-06
aF1000.0000063869601
asS'bs_UREASE_RXN'
p89
(lp90
F3.6751094616297234e-06
aF1000.0000063766039
asS'bs_SULFITE_OXIDASE_RXN'
p91
(lp92
F1.8629793469531603e-06
aF78.43157141651898
asS'ms_HOMOSERKIN_RXN'
p93
(lp94
F9.311886599954345e-05
aF999.9999798149721
asS'ms_chloroplast_TPT_DHAP_exchange'
p95
(lp96
F-999.9999823409062
aF1000.0000081563786
asS'bs_sink_1_4_beta_D_xylan_monomer_equivalent'
p97
(lp98
F1.8404246554709668e-06
aF999.9999197079866
asS'ms_sink_LINOLENIC_ACID'
p99
(lp100
F1.7541574145502775e-06
aF124.99985843102843
asS'ms_PRIBFAICARPISOM_RXN'
p101
(lp102
F6.237801590083275e-05
aF393.40843731882507
asS'ms_RXN_11501'
p103
(lp104
F7.3645233625557055e-06
aF999.9999998295011
asS'ms_sink_PHYTOSPINGOSINE'
p105
(lp106
F3.755327137071427e-06
aF132.86320924991745
asS'bs_TYROSINE_DECARBOXYLASE_RXN'
p107
(lp108
F5.5971425093371565e-06
aF39.21560752886867
asS'bs_UGD_RXN'
p109
(lp110
F7.518664410466336e-05
aF1000.0000081716656
asS'ms_AMP_DEAMINASE_RXN'
p111
(lp112
F1.8362830368610526e-06
aF999.9998164692026
asS'ms_GenericATPase_mod'
p113
(lp114
F1.839532944556332e-06
aF1000.0000081619698
asS'ms_ATPPHOSPHORIBOSYLTRANS_RXN'
p115
(lp116
F6.237800893930014e-05
aF393.4084362473576
asS'ms_THREDEHYD_RXN'
p117
(lp118
F8.779746326442565e-05
aF937.5770324900443
asS'bs_MALIC_NADP_RXN_chloroplast'
p119
(lp120
F1.8361639183637872e-06
aF1000.0000081644567
asS'ms_PHENYLALANINE_AMMONIA_LYASE_RXN'
p121
(lp122
F8.244014418879939e-05
aF403.1889070884846
asS'bs_AIRCARBOXY_RXN'
p123
(lp124
F0.0001037791887556021
aF156.86360115711304
asS'ms_ARGINASE_RXN'
p125
(lp126
F3.6871256300299187e-06
aF749.9992756569483
asS'bs_RXN_9588'
p127
(lp128
F3.768228906186129e-06
aF9.617082430783324
asS'bs_PHOSPHATIDATE_PHOSPHATASE_RXN'
p129
(lp130
F3.0422190535401693e-05
aF1000.0000081717366
asS'bs_PHOSPHAGLYPSYN_RXN'
p131
(lp132
F5.807941120998007e-06
aF63.96235780055542
asS'ms_sink_CELLULOSE_monomer_equivalent'
p133
(lp134
F1.8333336465913334e-06
aF999.9999532584542
asS'ms_RXN_9658'
p135
(lp136
F0.00021381115336382525
aF142.85699570445038
asS'bs_FPPSYN_RXN'
p137
(lp138
F9.132049384302614e-05
aF11.204192157170574
asS'ms_ARGSUCCINSYN_RXN'
p139
(lp140
F5.151480672410116e-05
aF749.9992755923658
asS'ms_SULFATE_ADENYLYLTRANS_RXN'
p141
(lp142
F1.704758156852301e-05
aF999.999641587092
asS'ms_PHOSGLYPHOS_RXN'
p143
(lp144
F-1000.0000063115954
aF1000.0000063303669
asS'bs_EC_1_18_1_2_chloroplast'
p145
(lp146
F-519.3636203829383
aF137.49977474513975
asS'bs_MANNPISOM_RXN'
p147
(lp148
F9.107467627992097e-05
aF1000.0000081320746
asS'bs_HISTCYCLOHYD_RXN'
p149
(lp150
F1.4840177905305844e-05
aF534.7719976545122
asS'ms_RXN_1382'
p151
(lp152
F-66.66653669448712
aF64.46838682338736
asS'ms_ADENOSINE_KINASE_RXN'
p153
(lp154
F0.0002052657543876995
aF1000.0000081626338
asS'ms_peroxisome_serine_exchange'
p155
(lp156
F3.6638526104743508e-06
aF40.05332063435254
asS'bs_THYMIDYLATESYN_RXN'
p157
(lp158
F7.178675924861638e-05
aF78.43159778182009
asS'ms_sink_CHLOROPHYLL_B'
p159
(lp160
F3.7081653323820614e-06
aF69.60044497144166
asS'ms_sink_CHLOROPHYLL_A'
p161
(lp162
F1.838065047160141e-06
aF72.06279883608835
asS'bs_DIHYDROPICRED_RXN_DELTA1_PIPERIDEINE_2_6_DICARBOXYLATE_NAD__2_3_DIHYDRODIPICOLINATE_NADH_PROTON_78_'
p163
(lp164
F1.833081722368477e-06
aF999.999982545878
asS'bs_PHOSMANMUT_RXN'
p165
(lp166
F9.238987453461314e-05
aF999.9998733262975
asS'ms_EC_1_2_1_9'
p167
(lp168
F1.8353148859827383e-06
aF1000.0000081609049
asS'bs_ComplexIV_mod_mitochondrion'
p169
(lp170
F0.00013765549455360045
aF78.43161832393322
asS'ms_sink_Glucomannan_monomer_equivalent'
p171
(lp172
F3.6836785427727357e-06
aF999.9998516014763
asS'bs_MDHFerredoxinReduction_chloroplast'
p173
(lp174
F1.846572425471182e-06
aF156.8635563195059
asS'ms_OROPRIBTRANS_RXN'
p175
(lp176
F0.00010316068665693609
aF152.7160718688019
asS'ms_sink_STEARIC_ACID'
p177
(lp178
F1.8378830097643425e-06
aF124.99985196534128
asS'bs_ArabinoxylanSynthesis_mod'
p179
(lp180
F3.5918861501202425e-06
aF499.9999128800024
asS'bs_RXN_9516'
p181
(lp182
F0.00021380641426923258
aF142.85700315792405
asS'ms_EC_5_1_3_15'
p183
(lp184
F-999.9999989739147
aF1000.0000081641326
asS'bs_SEDOHEPTULOSE_BISPHOSPHATASE_RXN_chloroplast'
p185
(lp186
F1.0091055041639482e-06
aF78.57134744799812
asS'bs_ComplexV_mod_mitochondrion'
p187
(lp188
F0.00015777914376488567
aF522.8795550992447
asS'ms_RXN_1225'
p189
(lp190
F3.7633811747764733e-06
aF66.66652802884491
asS'ms_RXN_1101'
p191
(lp192
F7.161607650946027e-05
aF403.1889065839819
asS'ms_ASPARTATE_SEMIALDEHYDE_DEHYDROGENASE_RXN'
p193
(lp194
F0.00010204898454621754
aF1000.0000064623206
asS'bs_DSERDEAM_RXN'
p195
(lp196
F3.6861886715375183e-06
aF1000.0000063287698
asS'ms_sink_DNA_base_equivalent'
p197
(lp198
F3.663608211305418e-06
aF287.6898711540462
asS'ms_chloroplast_O2_exchange'
p199
(lp200
F-68.7498963212059
aF323.252543724396
asS'bs_chloroplast_oxaloacetate_exchange'
p201
(lp202
F1.8375657647583146e-06
aF1000.0000063257797
asS'ms_AMP_DEPHOSPHORYLATION_RXN'
p203
(lp204
F1.8387997235852515e-06
aF999.9997972627707
asS'bs_tx_ILE'
p205
(lp206
F-999.999951052707
aF1000.0000082696163
asS'ms_sink_L_1_PHOSPHATIDYL_GLYCEROL'
p207
(lp208
F5.763612657651166e-06
aF66.66652064591251
asS'bs_CITSYN_RXN_mitochondrion'
p209
(lp210
F8.659620471158924e-05
aF578.4315728951821
asS'ms_RXN_10938'
p211
(lp212
F3.689011056556737e-06
aF1000.0000063406335
asS'bs_mitochondrion_proton_exchange'
p213
(lp214
F0.00016226766044151637
aF908.5008844310272
asS'ms__1TRANSKETO_RXN'
p215
(lp216
F-472.0571062779512
aF-1.8156850156765699e-06
asS'bs__2_ISOPROPYLMALATESYN_RXN'
p217
(lp218
F1.8458235873992002e-06
aF1000.0000030664302
asS'bs_GLUC1PADENYLTRANS_RXN_chloroplast'
p219
(lp220
F9.238083912837354e-06
aF235.71419706347626
asS'bs_RXN1F_10'
p221
(lp222
F9.132049587725916e-05
aF11.204192177183028
asS'ms_NucleicAcidSink'
p223
(lp224
F4.644854082021346e-05
aF0.5514044362004503
asS'bs_RXN_3523_chloroplast'
p225
(lp226
F5.556795341031572e-06
aF78.43155286880229
asS'ms_TRANS_CINNAMATE_4_MONOOXYGENASE_RXN'
p227
(lp228
F8.244014414836298e-05
aF403.1889068956681
asS'ms_RXN_2601'
p229
(lp230
F5.565758526043048e-06
aF321.3051559673969
asS'bs_FGAMSYN_RXN'
p231
(lp232
F0.00010362108304246282
aF156.86360115711378
asS'ms_ComplexV_mod_mitochondrion'
p233
(lp234
F0.0001381271343741371
aF999.9999897398504
asS'ms_UDP_GLUCURONATE_4_EPIMERASE_RXN'
p235
(lp236
F7.390666602744532e-05
aF999.9999082565392
asS'ms_PORPHOBILSYNTH_RXN'
p237
(lp238
F7.66575186840401e-05
aF288.25600966940044
asS'ms_UGD_RXN'
p239
(lp240
F7.523423947292801e-05
aF1000.0000081758322
asS'bs_ANTHRANSYN_RXN'
p241
(lp242
F6.350330387156428e-05
aF455.7438920562043
asS'ms_peroxisome_oxoglutarate_exchange'
p243
(lp244
F-48.252522995769496
aF-1.859419477224627e-06
asS'bs_DIHYDROOROT_RXN'
p245
(lp246
F0.00010316301351761896
aF156.8636011570517
asS'ms_CHORISMATE_SYNTHASE_RXN'
p247
(lp248
F0.00014461123718177184
aF653.2558765036022
asS'ms_DIHYDROFOLATEREDUCT_RXN'
p249
(lp250
F9.30435167201201e-05
aF71.92205515797626
asS'bs_GLUTAMIDOTRANS_RXN'
p251
(lp252
F1.4840177859207953e-05
aF534.7719945904644
asS'bs__1TRANSKETO_RXN_chloroplast'
p253
(lp254
F1.0091448436034232e-06
aF78.57134742853447
asS'bs_sink__L_1_phosphatidyl_inositols_'
p255
(lp256
F7.762374115314274e-06
aF63.96227143555281
asS'ms_DIACYLGLYKIN_RXN'
p257
(lp258
F1.833058228358056e-06
aF999.9999808744075
asS'bs_THIOESTER_RXN_BUTYRYL_COA_WATER__BUTYRIC_ACID_CO_A_PROTON_44_'
p259
(lp260
F3.679818905839979e-06
aF1000.0000063201193
asS'ms_RXN_2944'
p261
(lp262
F3.6889497250732254e-06
aF999.9996637414023
asS'ms_AIRCARBOXY_RXN'
p263
(lp264
F5.02043253252391e-05
aF152.7160688063893
asS'bs_CARBOXYCYCLOHEXADIENYL_DEHYDRATASE_RXN'
p265
(lp266
F1.842870815406411e-06
aF588.1171208329296
asS'plasmodesmata_ms_L_alanine_bs_L_alanine'
p267
(lp268
F-1000.0000081588477
aF1000.0000081553839
asS'bs_sink_Arabinoxylan_monomer_equivalent'
p269
(lp270
F3.5918862110575545e-06
aF499.99991288000246
asS'ms_RXN_9518'
p271
(lp272
F0.0002137873884652913
aF142.85699564407193
asS'bs_SUCROSE_SYNTHASE_RXN'
p273
(lp274
F-1000.0000086417415
aF999.9996105159896
asS'ms_EC_1_1_1_34'
p275
(lp276
F1.1238309459846532e-05
aF245.6286349224754
asS'ms_BRANCHED_CHAINAMINOTRANSFERVAL_RXN'
p277
(lp278
F-999.9999508426614
aF-6.878551517499644e-05
asS'ms_RXN_11654'
p279
(lp280
F6.54055668560475e-05
aF321.3051689603024
asS'ms_EC_1_1_1_39'
p281
(lp282
F1.8394219101353624e-06
aF1000.0000081637943
asS'bs_chloroplast_TPT_DHAP_exchange'
p283
(lp284
F-999.9999859184618
aF1000.0000081556478
asS'bs_IPPISOM_RXN'
p285
(lp286
F-33.61334125840679
aF11.204188473654382
asS'ms_mitochondrion_ammonia_exchange'
p287
(lp288
F-500.0000031654651
aF-1.8383987288239027e-06
asS'ms_PHOSPHOMEVALONATE_KINASE_RXN'
p289
(lp290
F1.1238309445999427e-05
aF245.62864825968276
asS'bs_GenericNADOxidase_mod'
p291
(lp292
F1.8342040039066323e-06
aF1000.0000081664814
asS'ms_RXN_969_peroxisome'
p293
(lp294
F9.250336101891579e-06
aF48.2525458991748
asS'bs_RXN_12200'
p295
(lp296
F1.8419769290991248e-06
aF999.9999524937818
asS'bs_AIRS_RXN'
p297
(lp298
F0.00010362104960018666
aF156.86360115711565
asS'ms_RXN_9670'
p299
(lp300
F5.873708333976043e-05
aF124.99977382324646
asS'bs_sink_CPD_649'
p301
(lp302
F3.7304650697736193e-06
aF135.34892208439248
asS'bs_ProteinSink'
p303
(lp304
F6.425760517563689e-05
aF12.251858899606232
asS'ms_SAICARSYN_RXN'
p305
(lp306
F0.00010458683557680911
aF145.45264725349938
asS'bs_EC_1_1_1_8'
p307
(lp308
F1.8347802442873209e-06
aF127.92529353662788
asS'bs_SULFATE_ADENYLYLTRANS_RXN'
p309
(lp310
F1.7053923508028894e-05
aF411.76490181619096
asS'bs__3_DEHYDROQUINATE_DEHYDRATASE_RXN'
p311
(lp312
F7.211677344524047e-05
aF652.0530237193196
asS'bs_PYRUVATEORTHOPHOSPHATE_DIKINASE_RXN_chloroplast'
p313
(lp314
F1.8330465381652156e-06
aF117.85705115143875
asS'bs_PHOSPHASERDECARB_RXN'
p315
(lp316
F1.8462726522329128e-06
aF63.35502152784193
asS'bs_sink_PHE'
p317
(lp318
F1.8348865321968927e-06
aF1000.0000081683829
asS'ms_AscorbateProduction_mod_mitochondrion'
p319
(lp320
F9.251790520968615e-06
aF374.99987527210845
asS'ms_RXN_12195'
p321
(lp322
F1.8395244956783416e-06
aF1000.0000081850312
asS'bs_MYO_INOSITOL_1_KINASE_RXN'
p323
(lp324
F1.819030759486989e-06
aF999.99999835375
asS'ms_RXN_7658'
p325
(lp326
F5.5999207414999825e-06
aF72.06295483945568
asS'ms_RXN_12199'
p327
(lp328
F1.8380427404613082e-06
aF999.9999033306001
asS'bs_EC_5_1_3_15'
p329
(lp330
F-999.9999989942552
aF1000.0000081682301
asS'bs_mitochondrion_O2_exchange'
p331
(lp332
F0.00013765549451418086
aF78.43161832393436
asS'bs_mitochondrion_CO2_exchange'
p333
(lp334
F-937.9089697694608
aF-9.189267887574001e-05
asS'ms_RXN0_884_CPD_4211_NADP_WATER__HYDROXY_METHYL_BUTENYL_DIP_NADPH_PROTON_61_'
p335
(lp336
F1.8443112252229524e-06
aF278.89599824490966
asS'bs_mitochondrion_orotate_exchange'
p337
(lp338
F0.00010316495694223679
aF156.8636011570437
asS'bs_chloroplast_glycolate_glycerate_exchange'
p339
(lp340
F1.8317266381559939e-06
aF40.05332544349989
asS'bs_sink_CPD_440'
p341
(lp342
F5.5971424876328385e-06
aF39.21560752886867
asS'ms_PYRROLINECARBREDUCT_RXN_PRO_NADP__L_DELTA1_PYRROLINE_5_CARBOXYLATE_NADPH_PROTON_56_'
p343
(lp344
F1.8389996699356623e-06
aF1000.00000816317
asS'ms_AbstractFreeGalactoseSynthesis'
p345
(lp346
F4.980593687080198e-05
aF999.9995323645978
asS'bs_FERREDOXIN__NITRITE_REDUCTASE_RXN'
p347
(lp348
F3.6820352258215235e-06
aF166.66651382862125
asS'bs_sink_LINOLEIC_ACID'
p349
(lp350
F1.7129161086601941e-06
aF39.215538595822814
asS'bs_sink_L_ASPARTATE'
p351
(lp352
F1.834946570079734e-06
aF1000.0000081553274
asS'ms_RXN_9514'
p353
(lp354
F0.00021381116232588107
aF142.85699566258717
asS'ms_ISOCIT_CLEAV_RXN'
p355
(lp356
F5.1619772994110684e-05
aF499.99976748164977
asS'bs_RXN_743'
p357
(lp358
F3.7682288809191768e-06
aF9.617079646503939
asS'bs_DADPKIN_RXN'
p359
(lp360
F9.522959722218908e-05
aF78.43159438957127
asS'ms_EC_5_1_1_18'
p361
(lp362
F3.686366143901417e-06
aF1000.00000632899
asS'ms_peroxisome_glycerate_exchange'
p363
(lp364
F-40.053320637650636
aF-3.663852538583019e-06
asS'bs_ADENYLOSUCCINATE_SYNTHASE_RXN'
p365
(lp366
F0.00012500210876350995
aF999.9998477385905
asS'ms_EC_2_5_1_19'
p367
(lp368
F0.00014461123716321897
aF653.2558734483396
asS'ms_RXN_8389_mod'
p369
(lp370
F5.878646035791149e-05
aF0.4116231378268394
asS'ms_HemicelluloseSink'
p371
(lp372
F6.230647138164448e-05
aF18.07254683828747
asS'bs_PGLYCDEHYDROG_RXN'
p373
(lp374
F5.539165164574985e-06
aF1000.0000044993609
asS'bs_GLUTCYSLIG_RXN'
p375
(lp376
F3.7067498520960735e-06
aF1000.0000081818553
asS'bs_EC_4_2_1_59'
p377
(lp378
F0.0002138064125666408
aF142.85698583602792
asS'ms_RXN66_3'
p379
(lp380
F3.6875365600458994e-06
aF975.4398911293567
asS'ms__2OXOGLUTARATEDEH_RXN_mitochondrion'
p381
(lp382
F3.683667410207868e-06
aF333.33320392641855
asS'ms_mitochondrion_proton_exchange'
p383
(lp384
F0.00013991139758366534
aF1000.0000081563952
asS'bs_EC_5_1_1_18'
p385
(lp386
F3.6861886677087125e-06
aF1000.0000063287698
asS'bs_PROTOPORGENOXI_RXN'
p387
(lp388
F9.132049689705019e-05
aF11.204192163693575
asS'ms_RXN_9548'
p389
(lp390
F8.818011385584664e-05
aF124.99985182152989
asS'plasmodesmata_ms_AMMONIA_bs_AMMONIA'
p391
(lp392
F-1000.0000081691318
aF1000.0000081575427
asS'ms_RXN0_366'
p393
(lp394
F4.6074691832495493e-05
aF3.02701687479009
asS'ms_sink_SINAPYL_ALCOHOL'
p395
(lp396
F1.7170564881722507e-06
aF263.2898152661437
asS'ms_EC_2_4_1_82'
p397
(lp398
F7.364523393053445e-06
aF1000.0000002832617
asS'ms_DSERDEAM_RXN'
p399
(lp400
F3.686366147794245e-06
aF1000.00000632899
asS'ms_ACETATE__COA_LIGASE_RXN'
p401
(lp402
F6.429969713602896e-05
aF999.999595845268
asS'bs_CATAL_RXN_peroxisome'
p403
(lp404
F9.693164409551366e-06
aF20.373723907997544
asS'bs_sink_1_4_alpha_D_Glucan_monomer_equivalent_chloroplast'
p405
(lp406
F1.8393403114072354e-06
aF235.71419594433436
asS'bs_RIB5PISOM_RXN'
p407
(lp408
F-651.4028187538872
aF-0.00015426803231738742
asS'ms_RXN_MG_PROTOPORPHYRIN_METHYLESTER_SYN'
p409
(lp410
F8.420236798259862e-05
aF72.06168930713638
asS'ms_IMP_DEHYDROG_RXN'
p411
(F0.00011331214010205432
F76.35633913888442
tp412
sS'ms_FARNESYLTRANSTRANSFERASE_RXN'
p413
(lp414
F8.420236711599756e-05
aF72.06277386315016
asS'ms_GammaGlutamyltransferase_mod'
p415
(lp416
F3.6716381727307104e-06
aF1000.0000063816694
asS'ms_RXN_1841'
p417
(lp418
F6.794838845875298e-05
aF5.015033120612839
asS'ms_RXN_13158'
p419
(lp420
F6.26102808566776e-05
aF689.4197277475403
asS'ms_GART_RXN'
p421
(lp422
F0.00010476992044196092
aF145.45356049271442
asS'bs_sink_PHYTOSPINGOSINE'
p423
(lp424
F3.8441512976736345e-06
aF78.43160684352625
asS'ms_RXN_3522'
p425
(lp426
F1.839088445411538e-06
aF999.9996416333668
asS'bs_SPONTPRO_RXN'
p427
(lp428
F6.853506388598309e-05
aF1000.0000081729372
asS'bs_HOMOSERDEHYDROG_RXN_HOMO_SER_NADP__L_ASPARTATE_SEMIALDEHYDE_NADPH_PROTON_53_'
p429
(lp430
F1.8406795629841144e-06
aF999.9999882873941
asS'bs_RXN_9548'
p431
(lp432
F4.63857579726888e-05
aF124.99985221351307
asS'bs_EC_2_7_8_11'
p433
(lp434
F7.762650232523666e-06
aF63.962271725327646
asS'ms_sink_ASCORBATE'
p435
(lp436
F9.25179050919071e-06
aF374.9998752721084
asS'bs_GalacturonateTransfer_mod'
p437
(lp438
F6.545354513231693e-05
aF11.256912693509172
asS'bs_RXN_7903'
p439
(lp440
F0.0001573553757230426
aF78.4316317730761
asS'ms_AminoAcidSink'
p441
(lp442
F4.6382818352809147e-05
aF1.839080638140215
asS'bs_tx_THR'
p443
(lp444
F-999.9999293972058
aF1000.0000081575827
asS'bs_RXN_9540'
p445
(lp446
F0.0002138064135719327
aF142.85698577623637
asS'ms_ASPAMINOTRANS_RXN'
p447
(lp448
F-1000.0000081598719
aF999.9998407378844
asS'ms_peroxisome_glycolate_exchange'
p449
(lp450
F9.250336138201727e-06
aF48.25254587887187
asS'bs_RXN66_1'
p451
(lp452
F1.8465054304843127e-06
aF78.43156593052117
asS'ms_ADENOSYLHOMOCYSTEINASE_RXN'
p453
(lp454
F0.00020255729783733543
aF999.9992567764182
asS'ms_THIOESTER_RXN_BUTYRYL_COA_WATER__BUTYRIC_ACID_CO_A_PROTON_44_'
p455
(lp456
F3.6889497306630465e-06
aF999.9996637414002
asS'bs_MEVALONATE_KINASE_RXN'
p457
(lp458
F1.13477565176301e-05
aF44.81790834660899
asS'ms_DIHYDROPICRED_RXN_DELTA1_PIPERIDEINE_2_6_DICARBOXYLATE_NADP__2_3_DIHYDRODIPICOLINATE_NADPH_PROTON_80_'
p459
(lp460
F1.8403924770284933e-06
aF999.9999216145902
asS'bs_ACETOLACTSYN_RXN'
p461
(lp462
F5.5431544175807705e-06
aF1000.0000045519604
asS'bs_GenericATPase_mod'
p463
(lp464
F1.8396479761209822e-06
aF1000.0000081625965
asS'ms_ComplexII_mod_mitochondrion'
p465
(lp466
F6.263758449550114e-05
aF499.99994569548323
asS'ms_INORGPYROPHOSPHAT_RXN_chloroplast'
p467
(lp468
F1.2996284468380203e-05
aF235.7141842835824
asS'bs_sink_CHLOROPHYLL_A'
p469
(lp470
F1.7692560108420994e-06
aF11.204192173235242
asS'bs_sink_CHLOROPHYLL_B'
p471
(lp472
F3.950234670475178e-06
aF8.714289559374457
asS'ms_FRUCTOKINASE_RXN'
p473
(lp474
F1.8103602414760382e-06
aF1000.0000081570698
asS'bs_RXN_7658'
p475
(lp476
F5.67087500827877e-06
aF11.204184770811652
asS'bs_RXN_7659'
p477
(lp478
F5.670875342327639e-06
aF11.204184788853016
asS'bs_RXN_7710_mod_chloroplast'
p479
(lp480
F3.685370912802767e-06
aF235.71419783276949
asS'bs_GLUTKIN_RXN'
p481
(lp482
F3.691876734793003e-06
aF1000.0000063721751
asS'ms_sink_Xylogalacturonan_monomer_equivalent'
p483
(lp484
F3.698124967999061e-06
aF499.99993402859997
asS'bs_RIBULP3EPIM_RXN_chloroplast'
p485
(lp486
F-157.14277459642514
aF-1.0084358538692273e-05
asS'ms_RXN_6902'
p487
(lp488
F1.8370575422656872e-06
aF499.9998724180022
asS'ms_DUTP_PYROP_RXN'
p489
(lp490
F7.395011798645797e-05
aF71.92207138601641
asS'ms_EC_2_7_1_150'
p491
(lp492
F3.689011061579466e-06
aF1000.0000063406335
asS'bs_ISOCITDEH_RXN'
p493
(lp494
F1.8349570443254722e-06
aF578.43157718132
asS'bs_tx_L_ALPHA_ALANINE'
p495
(lp496
F-1000.0000081560537
aF1000.0000081553752
asS'ms_sink_Xyloglucan_monomer_equivalent'
p497
(lp498
F3.6957575024595328e-06
aF940.9360206131947
asS'bs_DTMPKI_RXN'
p499
(lp500
F7.550970482672549e-05
aF78.43159698409393
asS'ms_ACYLCOASYN_RXN_DODECANOATE_CO_A_ATP__LAUROYLCOA_CPD_PPI_AMP_45_'
p501
(lp502
F3.6889497143304624e-06
aF999.999593283183
asS'ms_sink__L_1_phosphatidyl_inositols_'
p503
(lp504
F7.702141126605683e-06
aF66.66651490467247
asS'bs_FARNESYLTRANSTRANSFERASE_RXN'
p505
(lp506
F9.132049397331168e-05
aF11.204192170567245
asS'ms_METHYLENETHFDEHYDROG_NADP_RXN'
p507
(lp508
F0.0001272228060687575
aF393.4084364040002
asS'bs_PGPPHOSPHA_RXN'
p509
(lp510
F5.8079409879511134e-06
aF63.96226540151779
asS'bs_EC_2_7_1_90'
p511
(lp512
F1.8327117614438428e-06
aF1000.0000081895788
asS'bs_EC_1_2_1_9'
p513
(lp514
F1.8348470928156342e-06
aF1000.0000082240263
asS'bs_sink__D_Galactosyl_12_diacyl_glycerols_'
p515
(lp516
F1.9102007013397032e-06
aF65.21273879993826
asS'bs_SEDOBISALDOL_RXN_chloroplast'
p517
(lp518
F1.0090276029489555e-06
aF78.57134742853445
asS'bs_RXN_9952'
p519
(lp520
F5.469775622562241e-06
aF1000.0000045138388
asS'ms_SPONTPRO_RXN'
p521
(lp522
F6.89894006953972e-05
aF1000.0000081685646
asS'bs_tx_WATER'
p523
(lp524
F-1000.0000081534308
aF1000.000008161553
asS'ms_ACONITATEHYDR_RXN_mitochondrion'
p525
(lp526
F5.6966803663632506e-05
aF649.9998627515532
asS'bs_sink_L_1_PHOSPHATIDYL_ETHANOLAMINE'
p527
(lp528
F3.837314554763771e-06
aF63.35506968385871
asS'bs_sink_Glucuronoxylan_monomer_equivalent'
p529
(lp530
F3.698657265967188e-06
aF499.9999175526139
asS'ms_IMIDPHOSDEHYD_RXN'
p531
(lp532
F6.28099389627453e-05
aF393.4084400880013
asS'ms_FattyAcidSink'
p533
(lp534
F4.6262547421599735e-05
aF1.9990204455269718
asS'ms_RXNQT_4142'
p535
(lp536
F9.251790511661064e-06
aF374.9998752248266
asS'bs_RXN_7737'
p537
(lp538
F1.2965841984580347e-05
aF999.9999862739331
asS'ms_THIOREDOXIN_REDUCT_NADPH_RXN'
p539
(lp540
F6.941367952577493e-05
aF287.68986915648134
asS'bs__6PFRUCTPHOS_RXN'
p541
(lp542
F1.8333017071661076e-06
aF1000.000008156721
asS'bs_DUTP_PYROP_RXN'
p543
(lp544
F7.374124393920865e-05
aF78.43159550971066
asS'bs_RXN4FS_3'
p545
(lp546
F1.3276577617357807e-05
aF61.037154895962175
asS'ms_CITSYN_RXN_mitochondrion'
p547
(lp548
F8.56760964037355e-05
aF649.9999405034913
asS'bs_DGDPKIN_RXN'
p549
(lp550
F8.810197836961624e-05
aF78.43159691039295
asS'bs_CHORISMATE_SYNTHASE_RXN'
p551
(lp552
F6.600103760812754e-05
aF652.0531045880832
asS'ms_Glycerol3POAcyltransferase_mod'
p553
(lp554
F5.693745699869319e-05
aF66.66656423084285
asS'ms_GlucoseTransfer_mod'
p555
(lp556
F4.733350089262088e-05
aF58.80872304745147
asS'ms_sink_HIS'
p557
(lp558
F3.498797507181495e-07
aF393.40843735717954
asS'ms_peroxisome_glutamate_exchange'
p559
(lp560
F1.8594022299259314e-06
aF48.252550102091654
asS'ms_RXN_8001'
p561
(lp562
F6.237805070341697e-05
aF393.40843652158725
asS'bs_RXN0_6491_mod_mitochondrion'
p563
(lp564
F8.896008715309564e-05
aF156.86360115704485
asS'ms_CHORISMATEMUT_RXN'
p565
(lp566
F0.00011675456990211004
aF653.2558801972947
asS'plasmodesmata_ms_GLT_bs_GLT'
p567
(lp568
F-1000.0000081566347
aF1000.0000081551973
asS'bs_DIAMINOPIMEPIM_RXN'
p569
(lp570
F1.2965841988591678e-05
aF999.9999862739331
asS'ms_ORNITHINE_GLU_AMINOTRANSFORASE_RXN'
p571
(lp572
F-596.7929597774902
aF999.9999494992362
asS'ms_ISPH2_RXN_DELTA3_ISOPENTENYL_PP_NAD_WATER__HYDROXY_METHYL_BUTENYL_DIP_NADH_PROTON_72_'
p573
(lp574
F1.8391176015189166e-06
aF288.2560079446141
asS'ms_PSERTRANSAM_RXN'
p575
(lp576
F5.538997861169372e-06
aF1000.0000045002482
asS'bs__2PGADEHYDRAT_RXN'
p577
(lp578
F-1000.0000063357589
aF1000.0000063097864
asS'bs_CTPSYN_RXN'
p579
(lp580
F0.00010141909213510342
aF78.43160044535773
asS'plasmodesmata_ms_WATER_bs_WATER'
p581
(lp582
F-1000.0000081555789
aF1000.0000081574809
asS'bs_GLUTDECARBOX_RXN'
p583
(lp584
F7.424941675999129e-06
aF156.86355859389994
asS'ms_ACETOOHBUTREDUCTOISOM_RXN'
p585
(lp586
F8.77974636142257e-05
aF937.577032645009
asS'ms_RXN1F_66'
p587
(lp588
F-69.60437837514289
aF72.06268392345181
asS'ms_EC_2_3_3_8'
p589
(lp590
F1.8349669068119237e-06
aF649.9998590547926
asS'ms_RXN_7609'
p591
(lp592
F4.60760231846563e-05
aF3.027017172107025
asS'ms_OXALATE_OXIDASE_RXN'
p593
(lp594
F1.6673980609263259e-06
aF754.4135331487133
asS'bs_SULFITE_REDUCTASE_FERREDOXIN_RXN'
p595
(lp596
F5.47469488728562e-06
aF333.3331837844806
asS'bs_THREDEHYD_RXN'
p597
(lp598
F7.406909560979651e-06
aF1000.0000009849516
asS'ms_GLUTKIN_RXN'
p599
(lp600
F3.688966565201367e-06
aF1000.00000637412
asS'bs_IMP_DEHYDROG_RXN'
p601
(lp602
F5.860904124428928e-05
aF78.43160044540313
asS'ms_mitochondrion_oxaloacetate_exchange'
p603
(lp604
F-299.9998366931923
aF1000.0000081604321
asS'ms_RXN_9550'
p605
(lp606
F4.7669178028531506e-05
aF0.4116380349156193
asS'bs_GDPREDUCT_RXN'
p607
(lp608
F-78.43159550966406
aF-7.610907646782776e-05
asS'ms_RXN_3521_chloroplast'
p609
(lp610
F1.2933614287482988e-05
aF274.99993526990255
asS'ms_peroxisome_glycine_exchange'
p611
(lp612
F-48.25254589915424
aF-9.250336068761071e-06
asS'bs_ALDOSE1EPIM_RXN'
p613
(lp614
F1.657684407180724e-06
aF999.9997279301498
asS'bs_PGLUCISOM_RXN_chloroplast'
p615
(lp616
F-235.71419947735018
aF-9.238741071187877e-06
asS'ms_RXN_5642'
p617
(lp618
F1.3295123702924396e-05
aF64.46839352636803
asS'ms_sink_CPD_13612'
p619
(lp620
F1.8742755967929888e-06
aF136.18634973323515
asS'ms_sink_1_3_beta_D_glucan_monomer_equivalent'
p621
(lp622
F3.6804141234284124e-06
aF1000.0000063265007
asS'bs_SERINE_GLYOXYLATE_AMINOTRANSFERASE_RXN_peroxisome'
p623
(lp624
F3.6905138094629536e-06
aF38.64852705576956
asS'ms_OHMETHYLBILANESYN_RXN'
p625
(lp626
F8.420236879207784e-05
aF72.06158112743925
asS'ms_UDPGLUCEPIM_RXN_mod'
p627
(lp628
F-133.33319248457678
aF999.9995162681776
asS'ms_RXN_13398'
p629
(lp630
F3.709273783480656e-06
aF69.60403823692239
asS'bs_RXN0_1132_mitochondrion'
p631
(lp632
F8.659620462318947e-05
aF578.4315728951821
asS'bs_UTPHEXPURIDYLYLTRANS_RXN'
p633
(lp634
F1.8350999591405185e-06
aF1000.0000045082644
asS'bs_RXN1F_66'
p635
(lp636
F-8.714284101561706
aF11.204184793063215
asS'bs_peroxisome_O2_exchange'
p637
(lp638
F9.697571738485574e-06
aF20.373729107676446
asS'ms_sink_PHE'
p639
(lp640
F1.8557668056815209e-06
aF588.117123888983
asS'bs_AMP_DEAMINASE_RXN'
p641
(lp642
F1.839656364011706e-06
aF999.999823815827
asS'bs_mitochondrion_oxaloacetate_exchange'
p643
(lp644
F-156.8635569970192
aF1000.0000081611124
asS'ms_chloroplast_light_exchange'
p645
(lp646
F5.335809010932184e-05
aF549.9999439466518
asS'ms_sink_Glucuronoxylan_monomer_equivalent'
p647
(lp648
F3.6987470080027682e-06
aF499.99991353311003
asS'bs_UDP_ARABINOSE_4_EPIMERASE_RXN'
p649
(lp650
F7.464611031478057e-05
aF499.9998968209479
asS'bs_GLYCOGENSYN_RXN_mod_chloroplast'
p651
(lp652
F9.238083899438133e-06
aF235.71419706347623
asS'bs_PHOSGLYPHOS_RXN'
p653
(lp654
F-1000.0000081818598
aF1000.0000063431802
asS'bs_sink_SER'
p655
(lp656
F1.8349470115746377e-06
aF1000.0000081593034
asS'bs_CYSTATHIONINE_BETA_LYASE_RXN'
p657
(lp658
F3.687481653120864e-06
aF949.1568694859964
asS'bs_RXN0_366'
p659
(lp660
F4.607407292199638e-05
aF2.3176603398081412
asS'bs_sink_Homogalacturonan_monomer_equivalent'
p661
(lp662
F1.83309766120537e-06
aF999.9999359571972
asS'ms_PYRROLINECARBREDUCT_RXN_PRO_NAD__L_DELTA1_PYRROLINE_5_CARBOXYLATE_NADH_PROTON_54_'
p663
(lp664
F1.8321220900487426e-06
aF1000.0000081561442
asS'bs_IGPSYN_RXN'
p665
(lp666
F5.9516020473773356e-05
aF455.7438933671466
asS'ms_THRESYN_RXN'
p667
(lp668
F8.366482558707332e-05
aF999.9999367220386
asS'ms_CombinedBiomassReaction'
p669
(lp670
F4.802904464066681e-05
aF79.9680472979378
asS'ms_chloroplast_TPT_G3P_exchange'
p671
(lp672
F-423.1758559823184
aF235.71417337802623
asS'bs_tx_LYS'
p673
(lp674
F-999.999942307118
aF1000.0000081536434
asS'ms__6PGLUCONOLACT_RXN'
p675
(lp676
F5.474661060256986e-06
aF1000.0000045135351
asS'bs_PHOSPHOGLUCMUT_RXN_chloroplast'
p677
(lp678
F-235.71419959043666
aF-9.23808343106236e-06
asS'bs_RXN_9659'
p679
(lp680
F0.00021380641240340118
aF142.85700315792437
asS'ms_sink_CONIFERYL_ALCOHOL'
p681
(lp682
F1.797823367366986e-06
aF321.3051681327148
asS'ms_GUANYL_KIN_RXN'
p683
(lp684
F0.0001114941265702869
aF76.35762682472054
asS'ms_RXN_8730'
p685
(lp686
F3.689011056557713e-06
aF1000.0000063406335
asS'ms_RXN_7737'
p687
(lp688
F5.4024426965277434e-05
aF999.9998430202976
asS'ms_UROGENIIISYN_RXN'
p689
(lp690
F8.420236867098287e-05
aF72.06145872673089
asS'bs_tx_SUCROSE'
p691
(lp692
F-130.74189278541286
aF1000.0000081549001
asS'bs_sink_L_ALPHA_ALANINE'
p693
(lp694
F1.834915571260554e-06
aF1000.0000081551187
asS'bs_RXN66_3'
p695
(lp696
F3.6797249051952544e-06
aF999.9999458862367
asS'bs_SUCCCOASYN_RXN_mitochondrion'
p697
(lp698
F3.7011970738389617e-06
aF156.86355776806093
asS'bs__4_2_1_58_RXN'
p699
(lp700
F0.00021380641509687208
aF142.85698170380144
asS'bs_RXN_9644'
p701
(lp702
F5.896686735445312e-05
aF39.215549661869886
asS'ms_RXN_1781'
p703
(lp704
F1.923308196286988e-06
aF12.560257933836146
asS'bs_IMIDPHOSDEHYD_RXN'
p705
(lp706
F1.484017786077354e-05
aF534.7719982469939
asS'ms_RXN_9523'
p707
(lp708
F0.00021381115231545474
aF142.85699618399943
asS'ms_RXN_9520'
p709
(lp710
F0.00021381115453046403
aF142.8569674374908
asS'ms_RXN_9527'
p711
(lp712
F0.00021378737969022024
aF142.8569961212693
asS'bs__3_OXOACYL_ACP_SYNTH_RXN_Palmitoyl_ACPs_MALONYL_ACP__3_oxo_stearoyl_ACPs_CARBON_DIOXIDE_ACP_67_'
p713
(lp714
F1.837201135738303e-06
aF124.99986110492665
asS'plasmodesmata_ms_GAP_bs_GAP'
p715
(lp716
F-1000.0000081579761
aF1000.0000081639774
asS'ms_RXN_9524'
p717
(lp718
F0.0002138111514394973
aF142.8569956854575
asS'ms_RXN_9528'
p719
(lp720
F0.0002138111491856712
aF142.85699609128847
asS'bs__2OXOGLUTARATEDEH_RXN_mitochondrion'
p721
(lp722
F3.7011970714647215e-06
aF156.86355776806028
asS'ms_F16ALDOLASE_RXN_chloroplast'
p723
(lp724
F-235.71418410183372
aF-2.3995279193271546e-05
asS'bs_ACETYLORNTRANSAM_RXN'
p725
(lp726
F1.1084962596350032e-05
aF1000.0000045551884
asS'bs_peroxisome_glycolate_exchange'
p727
(lp728
F9.4429448577229e-06
aF40.74807741064994
asS'bs_SUPEROX_DISMUT_RXN_chloroplast'
p729
(lp730
F1.3223474326757917e-05
aF78.4315818031935
asS'ms_ARGSUCCINLYA_RXN'
p731
(lp732
F5.151480726101339e-05
aF749.999275031692
asS'ms__3_OXOACYL_ACP_SYNTH_RXN_Palmitoyl_ACPs_MALONYL_ACP__3_oxo_stearoyl_ACPs_CARBON_DIOXIDE_ACP_67_'
p733
(lp734
F1.83658268383601e-06
aF124.99985028161348
asS'bs_DNAPolymerase_mod'
p735
(lp736
F3.694062633826281e-06
aF78.43159442056174
asS'bs_PGLUCISOM_RXN'
p737
(lp738
F-1000.0000081561274
aF999.9999989935085
asS'bs_tx_L_ASPARTATE'
p739
(lp740
F-1000.0000082117831
aF1000.0000081554003
asS'ms_PHOSMANMUT_RXN'
p741
(lp742
F9.124057643333794e-05
aF999.9998726928114
asS'ms_F16ALDOLASE_RXN'
p743
(lp744
F-760.8590796698554
aF1000.0000081651956
asS'bs_RXN_3523'
p745
(lp746
F3.691196024137788e-06
aF78.43157272320707
asS'bs_sink_VAL'
p747
(lp748
F1.8348892057854025e-06
aF1000.0000081568846
asS'ms_RXN_13191'
p749
(lp750
F8.420236785438608e-05
aF72.06360536007354
asS'bs_SAICARSYN_RXN'
p751
(lp752
F0.00010383621380600174
aF156.86360115711244
asS'ms_RXN_1063'
p753
(lp754
F7.549865295331838e-06
aF124.99985806980737
asS'ms_sink_1_4_alpha_D_Glucan_monomer_equivalent_chloroplast'
p755
(lp756
F1.8426073852383237e-06
aF235.71418061833327
asS'ms_GLUTAMATE_SYNTHASE_FERREDOXIN_RXN'
p757
(lp758
F1.8397325287097083e-06
aF499.99984827160876
asS'ms_GLYC3PDEHYDROGBIOSYN_RXN_GLYCEROL_3P_NADP__DIHYDROXY_ACETONE_PHOSPHATE_NADPH_PROTON_59_'
p759
(lp760
F1.8423960351211745e-06
aF133.10332759521128
asS'bs_TRANSALDOL_RXN'
p761
(lp762
F1.8230569118487952e-06
aF469.20673731759655
asS'ms_sink_OLEATE_CPD'
p763
(lp764
F1.8836950257139246e-06
aF124.9998534722586
asS'bs_tx__Light_'
p765
(lp766
F5.4636705568392174e-05
aF549.9999448070413
asS'ms_MehlerReaction_chloroplast'
p767
(lp768
F1.2910184025991586e-05
aF549.9999404056749
asS'bs_AscorbateProduction_mod_mitochondrion'
p769
(lp770
F9.320269803477898e-06
aF156.86356756778827
asS'bs_HYDROXYMETHYLGLUTARYL_COA_SYNTHASE_RXN'
p771
(lp772
F1.1346469613186198e-05
aF44.817908346609315
asS'bs_ACETYLORNDEACET_RXN'
p773
(lp774
F3.6824794734631266e-06
aF999.9999402553801
asS'ms_FUMHYDR_RXN_mitochondrion'
p775
(lp776
F0.00016588952289310133
aF1000.0000081748174
asS'ms_XylanSynthase_mod'
p777
(lp778
F1.097419657088226e-05
aF999.9999151701671
asS'bs_ISPH2_RXN_DELTA3_ISOPENTENYL_PP_NAD_WATER__HYDROXY_METHYL_BUTENYL_DIP_NADH_PROTON_72_'
p779
(lp780
F1.8455149833925932e-06
aF44.817878181866995
asS'bs_GCVMULTI_RXN_mitochondrion'
p781
(lp782
F1.8415800143798257e-06
aF500.00000317754046
asS'bs_sink_SUCROSE'
p783
(lp784
F1.8349887991819206e-06
aF1000.0000082512818
asS'ms_RXN_1841_1_KESTOTRIOSE_WATER__BETA_D_FRUCTOSE_SUCROSE_45_'
p785
(lp786
F-5.015031926497085
aF7.545232559600099
asS'ms_GlucuronateTransfer_mod'
p787
(lp788
F4.618420398213437e-05
aF2.999908310835845
asS'ms_PRAISOM_RXN'
p789
(lp790
F6.56442608601519e-05
aF401.83223571732555
asS'ms_GalacturonateTransfer_mod'
p791
(lp792
F6.51160041625692e-05
aF14.70189603052273
asS'bs_ADENOSINE_KINASE_RXN'
p793
(lp794
F0.00021024076101873977
aF1000.0000081616755
asS'bs_ISOCITRATE_DEHYDROGENASE_NAD__RXN_mitochondrion'
p795
(lp796
F1.8407767314022557e-06
aF385.62094092008647
asS'bs_ASPARTATEKIN_RXN'
p797
(lp798
F2.7813316058703744e-05
aF1000.0000063847991
asS'ms_sink_TRP'
p799
(lp800
F1.8359610334309507e-06
aF401.83223556910633
asS'ms_RXN_9952'
p801
(lp802
F5.466651822387438e-06
aF1000.0000045135419
asS'bs_UDPKIN_RXN'
p803
(lp804
F1.8377671481237831e-06
aF1000.0000081624839
asS'bs_tx_GLY'
p805
(lp806
F-1000.0000081606673
aF1000.0000081551035
asS'ms_RXN_9634'
p807
(lp808
F0.00014006989967158782
aF124.99985893602295
asS'ms_RXN_9633'
p809
(lp810
F0.00014007057135199833
aF124.99994041461626
asS'ms_RXN_9632'
p811
(lp812
F1.8368226777711624e-06
aF124.99988193191756
asS'bs_GlucoseTransfer_mod'
p813
(lp814
F4.733649055466745e-05
aF45.02937181300444
asS'ms_RXN_9539'
p815
(lp816
F0.00021381115393872193
aF142.85699612626843
asS'bs_SERINE_C_PALMITOYLTRANSFERASE_RXN'
p817
(lp818
F1.3369119822546037e-05
aF136.52591189345446
asS'ms__4_2_1_61_RXN'
p819
(lp820
F0.00021381115655637347
aF142.85699607787117
asS'ms_mitochondrion_succinate_exchange'
p821
(lp822
F5.898775352897789e-05
aF499.9998798266167
asS'ms_TRIOSEPISOMERIZATION_RXN_chloroplast'
p823
(lp824
F-1000.0000081780057
aF999.9999786471773
asS'plasmodesmata_ms_L_ASPARTATE_bs_L_ASPARTATE'
p825
(lp826
F-999.999794608864
aF1000.0000081551482
asS'bs_RNAPolymerase_mod'
p827
(lp828
F3.778332822786275e-06
aF78.43157653495666
asS'bs_chloroplast_O2_exchange'
p829
(lp830
F-68.7499024732092
aF9.681632146515561
asS'plasmodesmata_ms_MG_2_bs_MG_2'
p831
(lp832
F8.420236811698331e-05
aF72.06182433308605
asS'bs_tx_PROTON'
p833
(lp834
F-1000.0000081540271
aF1000.0000081630831
asS'bs_ETHANOLAMINE_KINASE_RXN'
p835
(lp836
F1.3276577195687513e-05
aF61.03726935421469
asS'ms_HOMOCYSMETB12_RXN'
p837
(lp838
F0.0002026342174111309
aF949.2257222271497
asS'bs_CyclicElectronFlowPSI_mod_chloroplast'
p839
(lp840
F1.8457672804590242e-06
aF274.99994215383117
asS'bs_tx_ASN'
p841
(lp842
F-840.9591890913075
aF1000.0000081533452
asS'ms_CytochromeBF6Complex_mod_chloroplast'
p843
(lp844
F5.355032286381888e-05
aF274.9999369495987
asS'bs_PSERTRANSAM_RXN'
p845
(lp846
F5.539165155968751e-06
aF1000.0000044993609
asS'bs_RIBULOSE_BISPHOSPHATE_CARBOXYLASE_RXN_chloroplast'
p847
(lp848
F1.1018630676596893e-05
aF235.7141868166768
asS'ms_DIHYDRODIPICSYN_RXN'
p849
(lp850
F5.402442895837366e-05
aF999.9998434350947
asS'ms_CARBPSYN_RXN'
p851
(lp852
F1.8406049233382236e-06
aF599.9992759192205
asS'ms__1acylglycerol3POAcyltransferase_mod'
p853
(lp854
F5.69147896335373e-05
aF66.66656888968588
asS'ms_GLUTATHIONE_REDUCT_NADPH_RXN_chloroplast'
p855
(lp856
F5.5299806939935634e-06
aF274.9999334465517
asS'bs_RIBULP3EPIM_RXN'
p857
(lp858
F-449.91803404910814
aF666.666509215574
asS'bs_RXN_1103'
p859
(lp860
F7.526143650641508e-06
aF39.215571063190154
asS'bs_EC_1_2_1_13_chloroplast'
p861
(lp862
F1.8356847556549546e-06
aF235.7141842308847
asS'ms_BRANCHED_CHAINAMINOTRANSFERILEU_RXN'
p863
(lp864
F-937.5770325185982
aF-8.779746447227284e-05
asS'bs_ASPAMINOTRANS_RXN'
p865
(lp866
F-1000.0000081559612
aF1000.0000081677885
asS'bs_chloroplast_CO2_exchange'
p867
(lp868
F-999.9999950629249
aF235.71401162175883
asS'bs_ORNCARBAMTRANSFER_RXN'
p869
(lp870
F3.6961860879098653e-06
aF999.9998511753187
asS'bs_peroxisome_water_exchange'
p871
(lp872
F-40.74786594826938
aF-9.442944728602445e-06
asS'plasmodesmata_ms_phosphoenolpyruvate_bs_phosphoenolpyruvate'
p873
(lp874
F-1000.0000081580155
aF1000.0000081569098
asS'bs_GalactoseTransfer_mod'
p875
(lp876
F4.609165242871435e-05
aF1.9924571093339223
asS'bs_RXN0_5224'
p877
(lp878
F0.00021614091784335349
aF1000.0000081683845
asS'ms_RXN_1882'
p879
(lp880
F8.192352217462453e-05
aF999.9998644844485
asS'ms_RXN_1884'
p881
(lp882
F9.251790517602059e-06
aF374.9998752721084
asS'ms_GLURS_RXN'
p883
(lp884
F7.661554494899862e-05
aF576.5136521908317
asS'bs_THRESYN_RXN'
p885
(lp886
F1.8370969125947056e-06
aF999.9999862158434
asS'ms_RXN_8287'
p887
(lp888
F7.364523374707227e-06
aF1000.0000002832625
asS'bs_sink_HIS'
p889
(lp890
F1.8348866119752261e-06
aF1000.0000081572176
asS'bs_tx_TYR'
p891
(lp892
F-652.0509436646628
aF1000.0000081704466
asS'bs_GLURS_RXN'
p893
(lp894
F7.71216758505026e-05
aF89.63621101382407
asS'bs_PEPDEPHOS_RXN'
p895
(lp896
F-1000.0000081703741
aF1000.0000081628815
asS'ms_DAHPSYN_RXN'
p897
(lp898
F0.00014461123684222227
aF653.2558746501701
asS'ms_ACETYL_COA_ACETYLTRANSFER_RXN'
p899
(lp900
F1.1239496568459114e-05
aF245.62864782801103
asS'bs_ADPREDUCT_RXN'
p901
(lp902
F-78.43159430271042
aF-7.282794844978617e-05
asS'ms_SEDOHEPTULOSE_BISPHOSPHATASE_RXN_chloroplast'
p903
(lp904
F1.3026766991735632e-05
aF78.57135026451957
asS'bs_sink__Galactosyl_galactosyl_diacyl_glycerols_'
p905
(lp906
F3.7767689817692516e-06
aF65.21273966022896
asS'bs_RXN0_2382'
p907
(lp908
F5.95154284044101e-05
aF455.74389329527816
asS'bs_RXN0_2381'
p909
(lp910
F5.957169381502198e-05
aF455.74390131228455
asS'bs_ComplexI_mod_mitochondrion'
p911
(lp912
F1.8344688640209417e-06
aF156.8635737660071
asS'bs_RXN0_1133_mitochondrion'
p913
(lp914
F8.659620465265895e-05
aF578.4315728951817
asS'ms_RXN0_2381'
p915
(lp916
F5.907631407888303e-05
aF401.8322371162921
asS'bs_RXN0_1461'
p917
(lp918
F9.132049696341984e-05
aF11.204192170567095
asS'ms_EC_6_2_1_34'
p919
(lp920
F3.7015181848468084e-06
aF321.30515175247945
asS'ms_GLUTCYSLIG_RXN'
p921
(lp922
F3.706650817844842e-06
aF1000.0000081818565
asS'bs_ACETYL_COA_ACETYLTRANSFER_RXN'
p923
(lp924
F1.1346469562874446e-05
aF44.81790834660948
asS'bs_GDPKIN_RXN'
p925
(lp926
F0.00018279065874427305
aF1000.0000083380554
asS'bs_RXN_9550'
p927
(lp928
F4.7487233756329534e-05
aF0.3151035380168445
asS'bs_tx_ARG'
p929
(lp930
F-620.003254494037
aF1000.0000081564448
asS'ms_RXN_1126'
p931
(lp932
F1.8472012950219627e-06
aF321.30597633364044
asS'ms_RXN_1125'
p933
(lp934
F8.069657008654991e-05
aF263.28981514798755
asS'bs_ALANINE__GLYOXYLATE_AMINOTRANSFERASE_RXN'
p935
(lp936
F1.836765239641091e-06
aF156.86355666434986
asS'ms_GLUTAMATE_SYNTHASE_NADH_RXN'
p937
(lp938
F1.835184616577368e-06
aF999.9998572816426
asS'bs_METHENYLTHFCYCLOHYDRO_RXN'
p939
(lp940
F0.00012326524302465672
aF534.772847446892
asS'bs_AMPSYN_RXN'
p941
(lp942
F0.00012500205835974082
aF999.9998477386002
asS'ms_ISPH2_RXN_DELTA3_ISOPENTENYL_PP_NADP_WATER__HYDROXY_METHYL_BUTENYL_DIP_NADPH_PROTON_74_'
p943
(lp944
F1.8443129443009303e-06
aF278.89517117942967
asS'ms_HOMOSERDEHYDROG_RXN_HOMO_SER_NADP__L_ASPARTATE_SEMIALDEHYDE_NADPH_PROTON_53_'
p945
(lp946
F1.840000280371154e-06
aF999.9999683313189
asS'bs_EC_1_1_1_34'
p947
(lp948
F1.1346469663516164e-05
aF44.817908346609265
asS'bs_RXN_1063'
p949
(lp950
F7.90198045587246e-06
aF39.215545922645504
asS'bs_peroxisome_serine_exchange'
p951
(lp952
F3.690436425767148e-06
aF38.648527072787985
asS'bs_DUDPKIN_RXN'
p953
(lp954
F7.178678220412983e-05
aF78.43159870102704
asS'bs_UDP_GLUCURONATE_4_EPIMERASE_RXN'
p955
(lp956
F7.424724151080045e-05
aF999.999921333639
asS'bs_RXN_1102'
p957
(lp958
F7.25376912577673e-05
aF78.43156374629142
asS'bs_sink_amylopectin_monomer_equivalent_chloroplast'
p959
(lp960
F3.685370905716313e-06
aF235.71419783277202
asS'bs_RXN_1101'
p961
(lp962
F7.253769127741651e-05
aF78.431562307273
asS'bs_RXN_1106'
p963
(lp964
F7.485705927972632e-05
aF39.215579103466894
asS'bs_EC_1_1_1_39'
p965
(lp966
F1.8393797612113088e-06
aF1000.0000081622244
asS'bs_RXN_1104'
p967
(lp968
F3.7319088837794176e-06
aF39.215567845075874
asS'ms_AICARTRANSFORM_RXN'
p969
(lp970
F0.00012697507850410373
aF393.4084319962207
asS'bs_EC_2_7_7_13'
p971
(lp972
F9.238987461614168e-05
aF999.9998554429828
asS'bs_tx_GLUTATHIONE'
p973
(lp974
F-465.1424035048069
aF1000.0000081570777
asS'bs_GART_RXN'
p975
(lp976
F0.00010362110768417558
aF156.8636528708624
asS'bs_IMPCYCLOHYDROLASE_RXN'
p977
(lp978
F0.00012572045020745048
aF534.7719903947
asS'ms_CARBOXYCYCLOHEXADIENYL_DEHYDRATASE_RXN'
p979
(lp980
F9.260828612907106e-05
aF588.1171208792751
asS'ms_ComplexIV_mod_mitochondrion'
p981
(lp982
F0.00013753513924291626
aF249.99998320438556
asS'bs_GLUTRNAREDUCT_RXN'
p983
(lp984
F7.756147846704406e-05
aF89.63621101382437
asS'bs_peroxisome_oxoglutarate_exchange'
p985
(lp986
F-40.74785234790452
aF-1.8715105771855073e-06
asS'ms_EC_2_4_1_46'
p987
(lp988
F7.748723000325862e-06
aF66.66651949095694
asS'ms_EC_2_3_1_133'
p989
(lp990
F5.565758576400552e-06
aF321.3051557886688
asS'ms_ComplexI_mod_mitochondrion'
p991
(lp992
F1.8211004252496811e-06
aF299.99986508291306
asS'ms_ETHANOLAMINE_KINASE_RXN'
p993
(lp994
F1.329512347312536e-05
aF64.46875861812154
asS'ms_RXN0_2382'
p995
(lp996
F5.980281507149632e-05
aF401.8322351565926
asS'ms_HISTPRATPHYD_RXN'
p997
(lp998
F6.237801009920472e-05
aF393.408435141412
asS'bs_LinoleoylLipase_mod'
p999
(lp1000
F4.823854977765627e-05
aF39.21553843667708
asS'ms_PGLUCISOM_RXN'
p1001
(lp1002
F-1000.0000081554638
aF999.9999989592978
asS'bs_MYO_INOSITOL_1_PHOSPHATE_SYNTHASE_RXN_beta'
p1003
(lp1004
F1.867065535546378e-06
aF63.96227304511307
asS'bs_RXN0_884_CPD_4211_NADP_WATER__HYDROXY_METHYL_BUTENYL_DIP_NADPH_PROTON_61_'
p1005
(lp1006
F1.850851356752475e-06
aF44.81790734780841
asS'ms_sink_PHOSPHATIDYLCHOLINE'
p1007
(lp1008
F1.3295123888833627e-05
aF64.46870579945809
asS'bs_RXN_9527'
p1009
(lp1010
F0.00021380641227120714
aF142.85699517718047
asS'bs_PYRROLINECARBREDUCT_RXN_PRO_NAD__L_DELTA1_PYRROLINE_5_CARBOXYLATE_NADH_PROTON_54_'
p1011
(lp1012
F1.8318861576281425e-06
aF1000.0000081557554
asS'bs_GlucomannanSynthase_mod'
p1013
(lp1014
F3.682706999592086e-06
aF999.9998533260225
asS'bs_HISTPRATPHYD_RXN'
p1015
(lp1016
F1.484017793800755e-05
aF534.7719967155618
asS'ms_UTPHEXPURIDYLYLTRANS_RXN'
p1017
(lp1018
F1.835086857226271e-06
aF1000.0000044973632
asS'ms_F16BDEPHOS_RXN'
p1019
(lp1020
F1.8393787253843399e-06
aF1000.0000081625947
asS'plasmodesmata_ms_G3P_bs_G3P'
p1021
(lp1022
F-1000.0000081583397
aF1000.0000081579635
asS'bs_RXN_5682'
p1023
(lp1024
F1.8368110609645247e-06
aF652.0538623689706
asS'ms_RXN_7903'
p1025
(lp1026
F0.0001516750528562285
aF124.99987114482113
asS'ms_GLYOHMETRANS_RXN_mitochondrion'
p1027
(lp1028
F-500.0000031654651
aF-1.8383790490624744e-06
asS'ms_RXN_3521'
p1029
(lp1030
F7.379249092828244e-06
aF999.9996471562198
asS'ms_RXN_3523'
p1031
(lp1032
F3.6831277875894143e-06
aF820.8879860318627
asS'ms_RXN_7710_mod_chloroplast'
p1033
(lp1034
F3.6891942397865524e-06
aF235.7141824427164
asS'ms_PHOSPHATIDATE_PHOSPHATASE_RXN'
p1035
(lp1036
F3.0366981919201317e-05
aF1000.0000081699742
asS'ms_CAFFEOYL_COA_O_METHYLTRANSFERASE_RXN'
p1037
(lp1038
F1.4747982809473845e-05
aF321.3051651791824
asS'ms_sink__D_Galactosyl_12_diacyl_glycerols_'
p1039
(lp1040
F1.8974932436225127e-06
aF66.66652040241672
asS'ms_GenericNADPOxidase_mod'
p1041
(lp1042
F1.839105890436753e-06
aF1000.0000081740876
asS'ms_RXN0_1133'
p1043
(lp1044
F5.511462807450331e-06
aF1000.0000045721381
asS'bs_ACONITATEDEHYDR_RXN_mitochondrion'
p1045
(lp1046
F8.34854842533591e-05
aF578.4315785402356
asS'ms_sink_Homogalacturonan_monomer_equivalent'
p1047
(lp1048
F1.833110398005239e-06
aF999.9999166235257
asS'ms_sink_CPD_440'
p1049
(lp1050
F5.582810205683212e-06
aF211.36721314208512
asS'bs_EC_2_1_1_103'
p1051
(lp1052
F1.3276577321168735e-05
aF61.037149184506866
asS'plasmodesmata_ms_oxygen_bs_oxygen'
p1053
(lp1054
F-9.681996155006763
aF68.74953083076608
asS'bs_EC_3_5_2_9'
p1055
(lp1056
F3.6805608715060776e-06
aF1000.0000063369416
asS'bs_RXN_2981'
p1057
(lp1058
F3.679818895054932e-06
aF1000.0000063201193
asS'ms_ASPCARBTRANS_RXN'
p1059
(lp1060
F0.00010316066987376831
aF152.71606935011803
asS'ms_RXN_2122'
p1061
(lp1062
F7.5498651305371195e-06
aF124.99985860061729
asS'bs_sink_Glucomannan_monomer_equivalent'
p1063
(lp1064
F3.682672195124998e-06
aF999.9998533260224
asS'ms_FGAMSYN_RXN'
p1065
(lp1066
F0.0001034832016407054
aF152.71522993339636
asS'ms_EC_1_14_13_36'
p1067
(lp1068
F5.56575850931885e-06
aF321.30515596917246
asS'ms_XyloseTransfer_mod'
p1069
(lp1070
F5.957919808981249e-05
aF22.55455611412927
asS'ms_EC_1_1_1_8'
p1071
(lp1072
F1.8342883690867031e-06
aF133.33319587789626
asS'ms_mitochondrion_citrate_exchange'
p1073
(lp1074
F-649.9998074843401
aF-7.139210984368231e-05
asS'bs_GLY3KIN_RXN_chloroplast'
p1075
(lp1076
F1.831714761827704e-06
aF40.053325340661154
asS'bs_EC_2_7_7_60'
p1077
(lp1078
F1.845169155597834e-05
aF44.81787989777117
asS'ms_EC_3_1_3_25'
p1079
(lp1080
F1.1466910269558421e-05
aF1000.0000082060465
asS'ms_ASNSYNB_RXN'
p1081
(lp1082
F1.8440099691558224e-06
aF999.8374488746873
asS'bs_ACETOOHBUTREDUCTOISOM_RXN'
p1083
(lp1084
F7.406696549377262e-06
aF1000.0000009849515
asS'ms_DXPREDISOM_RXN'
p1085
(lp1086
F1.8370420398365617e-05
aF288.2560096814332
asS'ms_EC_2_7_7_13'
p1087
(lp1088
F9.124057647666786e-05
aF999.9998726928116
asS'ms_RIBULP3EPIM_RXN_chloroplast'
p1089
(lp1090
F-157.14276102556633
aF-1.2910422895451822e-05
asS'bs_RXN0_1134_mitochondrion'
p1091
(lp1092
F8.659620461701906e-05
aF578.431572895182
asS'bs_GlucuronateTransfer_mod'
p1093
(lp1094
F4.607464536349288e-05
aF2.296898178460735
asS'ms_GLYRIBONUCSYN_RXN'
p1095
(lp1096
F0.00010348320055545949
aF152.7160718727631
asS'bs_HOMOCYSMETB12_RXN'
p1097
(lp1098
F3.677233565369789e-06
aF999.9999386427578
asS'ms_GALACTURIDYLYLTRANS_RXN'
p1099
(lp1100
F1.835082451006714e-06
aF1000.0000045048149
asS'ms_CarbohydratesSink'
p1101
(lp1102
F4.5643564757063756e-05
aF45.181785560030335
asS'bs_F16ALDOLASE_RXN_chloroplast'
p1103
(lp1104
F-235.7141996186269
aF-2.3906632344022384e-05
asS'bs_PRTRANS_RXN'
p1105
(lp1106
F5.9572285870745144e-05
aF455.7438921296634
asS'ms_PGLYCDEHYDROG_RXN'
p1107
(lp1108
F5.538997870003452e-06
aF1000.0000045002482
asS'ms_mitochondrion_fumarate_exchange'
p1109
(lp1110
F7.006728761757558e-05
aF999.999937807909
asS'ms_PEPCARBOXYKIN_RXN'
p1111
(lp1112
F1.8394121575140987e-06
aF1000.0000081854212
asS'ms_ASPARTATEKIN_RXN'
p1113
(lp1114
F0.00010204898451049611
aF1000.0000064149028
asS'bs_ACETYL_COA_CARBOXYLTRANSFER_RXN'
p1115
(lp1116
F1.835191202736097e-06
aF999.99999756329
asS'bs_mitochondrion_ATP_ADP_exchange'
p1117
(lp1118
F0.0001606831342393939
aF522.8795558428368
asS'ms_RXN3O_1380'
p1119
(lp1120
F3.7553271812227414e-06
aF132.86320459610235
asS'bs_UDPREDUCT_RXN'
p1121
(lp1122
F7.550970276952307e-05
aF78.43159826195563
asS'ms_ACETYLORNTRANSAM_RXN'
p1123
(lp1124
F1.108549435346808e-05
aF1000.0000045479549
asS'bs_ARGSUCCINSYN_RXN'
p1125
(lp1126
F3.6961860765378856e-06
aF999.9998511753168
asS'bs_tx_PHE'
p1127
(lp1128
F-588.1171177506734
aF1000.0000081589712
asS'ms_GDPKIN_RXN'
p1129
(lp1130
F0.00018381902673172794
aF1000.000008164508
asS'ms_sink_CYS'
p1131
(lp1132
F1.8350743647601165e-06
aF1000.0000081631667
asS'ms_MALIC_NADP_RXN_chloroplast'
p1133
(lp1134
F1.8213336601258635e-06
aF1000.000008171049
asS'bs_mitochondrion_succinate_exchange'
p1135
(lp1136
F5.897783145769552e-05
aF156.86356355434464
asS'ms_SERINE_GLYOXYLATE_AMINOTRANSFERASE_RXN_peroxisome'
p1137
(lp1138
F3.663852610325544e-06
aF40.05332063442291
asS'bs_mitochondrion_pyruvate_exchange'
p1139
(lp1140
F8.659620461920307e-05
aF578.4315728951818
asS'ms_RXN0_1132'
p1141
(lp1142
F5.511462815372705e-06
aF1000.0000045721381
asS'ms_TRIOSEPISOMERIZATION_RXN'
p1143
(lp1144
F-1000.0000081643192
aF1000.0000081552253
asS'ms_SPHINGANINE_KINASE_RXN'
p1145
(lp1146
F3.7635062316737113e-06
aF135.35741958023715
asS'ms_HISTIDPHOS_RXN'
p1147
(lp1148
F6.237804142233497e-05
aF393.4092720402287
asS'bs_TRIOSEPISOMERIZATION_RXN_chloroplast'
p1149
(lp1150
F-1000.0000081670902
aF999.9999823920753
asS'bs_RXN_9537'
p1151
(lp1152
F0.00021380641277035615
aF142.85698170380033
asS'bs_RXN_9536'
p1153
(lp1154
F0.0002138064125756211
aF142.85700333716406
asS'bs_RXN_9535'
p1155
(lp1156
F0.00021380641240499636
aF142.85697816370435
asS'bs_RXN_9533'
p1157
(lp1158
F0.00021380641217579174
aF142.8569644390835
asS'bs_RXN_9532'
p1159
(lp1160
F0.00021380641210842142
aF142.85698170380059
asS'bs_RXN_9531'
p1161
(lp1162
F0.00021380641207344154
aF142.8570038996375
asS'ms_RXN0_1134'
p1163
(lp1164
F5.511462815537124e-06
aF1000.0000045721381
asS'bs_RXN_8001'
p1165
(lp1166
F1.4840177871923476e-05
aF534.7719975663554
asS'bs_CELLULOSE_SYNTHASE_mod'
p1167
(lp1168
F5.539649709910589e-05
aF1000.0000081649238
asS'bs_F16BDEPHOS_RXN_chloroplast'
p1169
(lp1170
F2.3906635864654656e-05
aF235.7141996186273
asS'bs_AbstractFreeGalactoseSynthesis'
p1171
(lp1172
F4.9794869285278754e-05
aF999.9997278703476
asS'bs_GenericNADPOxidase_mod'
p1173
(lp1174
F1.839053643609256e-06
aF1000.0000081707873
asS'ms_AIRS_RXN'
p1175
(lp1176
F0.00010313310304840366
aF152.7160718664474
asS'bs_GPPSYN_RXN'
p1177
(lp1178
F9.249976913651425e-05
aF11.204192163693884
asS'ms_UDP_GLUCURONATE_DECARBOXYLASE_RXN'
p1179
(lp1180
F7.804022984567865e-05
aF999.9999100551079
asS'bs_sink_COUMARYL_ALCOHOL'
p1181
(lp1182
F1.8004244795850703e-06
aF78.4315599337866
asS'ms_sink_THR'
p1183
(lp1184
F1.8375982041741058e-06
aF999.9999252322868
asS'bs_ACETATE__COA_LIGASE_RXN'
p1185
(lp1186
F6.429100577433687e-05
aF1000.0000081758021
asS'ms_RXN_9669'
p1187
(lp1188
F5.873708334040861e-05
aF124.99981733564132
asS'ms_OXALOACETASE_RXN_MOD'
p1189
(lp1190
F4.9890434338012684e-05
aF754.4143285267013
asS'bs_RXN_7665'
p1191
(lp1192
F7.511095636773216e-06
aF11.204186632971933
asS'bs_RXN_7664'
p1193
(lp1194
F7.507241686303045e-06
aF11.204186632971926
asS'ms_RXN_9662'
p1195
(lp1196
F0.00021381115285482892
aF142.85699596377543
asS'bs_RXN_7666'
p1197
(lp1198
F7.51109557070714e-06
aF11.204186638024375
asS'bs_RXN_7660'
p1199
(lp1200
F5.670875709248109e-06
aF11.204184788852983
asS'bs_RXN_7663'
p1201
(lp1202
F7.511095817348498e-06
aF11.204186624894335
asS'ms_RXN_9667'
p1203
(lp1204
F1.1961671869553919e-05
aF124.99984369729121
asS'bs_GPH_RXN_chloroplast'
p1205
(lp1206
F1.0411042191358616e-05
aF70.61112677647017
asS'bs_RXN_13163'
p1207
(lp1208
F-1000.0000030664298
aF-1.845823607807246e-06
asS'bs_RXN_10938'
p1209
(lp1210
F3.6892401097640736e-06
aF1000.0000063283787
asS'bs_AminoAcidSink'
p1211
(lp1212
F4.6307709210051596e-05
aF1.4080691525379274
asS'bs_RXN_1685'
p1213
(lp1214
F3.6824205585545846e-06
aF1000.0000063614661
asS'ms_RXN0_1461'
p1215
(lp1216
F8.42023684098376e-05
aF72.0626381115651
asS'ms_EC_6_2_1_12'
p1217
(lp1218
F8.424611798098225e-05
aF403.18973417185214
asS'bs_RXN0_884_CPD_4211_NAD_WATER__HYDROXY_METHYL_BUTENYL_DIP_NADH_PROTON_59_'
p1219
(lp1220
F1.845512372146413e-06
aF44.81787457930037
asS'ms_PREPHENATE_TRANSAMINE_RXN'
p1221
(lp1222
F0.00011675456991586987
aF653.2558735232511
asS'ms_MANNPISOM_RXN'
p1223
(lp1224
F9.014218307939158e-05
aF999.9998703894272
asS'ms_GLY3KIN_RXN_chloroplast'
p1225
(lp1226
F1.8507905957000355e-06
aF40.05330502873765
asS'bs_GLUTATHIONE_PEROXIDASE_RXN'
p1227
(lp1228
F1.8500653721737566e-06
aF78.43156748899338
asS'ms_ISOCITRATE_DEHYDROGENASE_NAD__RXN_mitochondrion'
p1229
(lp1230
F1.8414988630512759e-06
aF393.9392577736001
asS'ms_RXN_2121'
p1231
(lp1232
F7.549865197791807e-06
aF124.9998597307513
asS'ms_XylogalacturonanSynthesis_mod'
p1233
(lp1234
F3.6981249794177697e-06
aF499.99993402859997
asS'bs_mitochondrion_isocitrate_exchange'
p1235
(lp1236
F-578.4315223671138
aF-5.34494708774541e-05
asS'ms_sink_L_1_PHOSPHATIDYL_ETHANOLAMINE'
p1237
(lp1238
F3.8068723504561643e-06
aF66.66660300651456
asS'ms_PHOSPHORIBULOKINASE_RXN_chloroplast'
p1239
(lp1240
F1.2896453074125782e-05
aF235.71419619813898
asS'bs_TRIOSEPISOMERIZATION_RXN'
p1241
(lp1242
F-1000.0000081563102
aF1000.0000081561332
asS'ms_ADENYL_KIN_RXN'
p1243
(lp1244
F0.0003857364888693038
aF1000.0000081727537
asS'bs_sink_GLN'
p1245
(lp1246
F1.838431892242908e-06
aF1000.0000081634095
asS'ms_RXN0_884_CPD_4211_NAD_WATER__HYDROXY_METHYL_BUTENYL_DIP_NADH_PROTON_59_'
p1247
(lp1248
F1.8391152589578485e-06
aF288.2568371577293
asS'bs_RIB5PISOM_RXN_chloroplast'
p1249
(lp1250
F1.0091837245873592e-06
aF78.57134744799811
asS'ms_UROGENDECARBOX_RXN'
p1251
(lp1252
F8.420236855610514e-05
aF72.06168843194223
asS'bs_sink_GLT'
p1253
(lp1254
F1.8349439518882088e-06
aF1000.0000081561013
asS'ms_ADENYL_KIN_RXN_chloroplast'
p1255
(lp1256
F1.85319374969566e-06
aF117.85704221625652
asS'bs_RXN_1142'
p1257
(lp1258
F7.977066506664743e-05
aF26.14355617912829
asS'bs_SUCROSE_PHOSPHATASE_RXN'
p1259
(lp1260
F3.6891330289517575e-06
aF1000.0000063869601
asS'ms_HISTAMINOTRANS_RXN'
p1261
(lp1262
F5.6206182809237444e-05
aF393.40843411823505
asS'bs_UROGENIIISYN_RXN'
p1263
(lp1264
F9.249977268750709e-05
aF11.204385003386072
asS'ms_GLUTAMATE_N_ACETYLTRANSFERASE_RXN'
p1265
(lp1266
F1.8343548020563157e-06
aF999.999999011253
asS'bs_RXN_1225'
p1267
(lp1268
F3.776769041738371e-06
aF65.21235148996263
asS'bs_RXN_1224'
p1269
(lp1270
F5.896150257784865e-06
aF64.58129656538154
asS'bs_RXN_1223'
p1271
(lp1272
F5.892096933424575e-06
aF64.58135003935642
asS'bs_sink_GLY'
p1273
(lp1274
F1.8349334750261009e-06
aF1000.0000081552931
asS'ms_ALANINE_AMINOTRANSFERASE_RXN'
p1275
(lp1276
F-1000.0000081553713
aF1000.0000081567107
asS'ms_MALONYL_COA_ACP_TRANSACYL_RXN'
p1277
(lp1278
F0.00021073514117104716
aF1000.0000014829059
asS'ms_TYROSINE_DECARBOXYLASE_RXN'
p1279
(lp1280
F5.582686653803656e-06
aF211.36721302211186
asS'ms_MALATE_DEH_RXN'
p1281
(lp1282
F-1000.0000081565948
aF1000.0000081600765
asS'plasmodesmata_ms_SUCROSE_bs_SUCROSE'
p1283
(lp1284
F-333.33280436053826
aF1000.000008176169
asS'bs_S_ADENMETSYN_RXN'
p1285
(lp1286
F0.00020635095615897762
aF1000.0000026738811
asS'bs_GLUTAMATE_DEHYDROGENASE_RXN'
p1287
(lp1288
F1.8386909729180344e-06
aF1000.0000081662636
asS'bs_RXN_9627'
p1289
(lp1290
F3.679818907990982e-06
aF1000.0000063201193
asS'bs_RXN1F_20'
p1291
(lp1292
F9.132049677851826e-05
aF11.204192163693564
asS'bs_RXN_1884'
p1293
(lp1294
F9.320269780612291e-06
aF156.86356756778784
asS'bs_chloroplast_TPT_GAP_exchange'
p1295
(lp1296
F-1000.0000081575074
aF1000.0000081569665
asS'bs_EC_1_8_4_9'
p1297
(lp1298
F1.7053923485719482e-05
aF411.7649018161915
asS'ms_SHIKIMATE_KINASE_RXN'
p1299
(lp1300
F0.0001446112371494574
aF653.2558789270333
asS'ms_GLUTAMATESYN_RXN'
p1301
(lp1302
F1.8395432146216478e-06
aF999.9998573744188
asS'ms_EC_6_3_4_16'
p1303
(lp1304
F1.8320628769695599e-06
aF749.9992752213846
asS'ms_HISTCYCLOHYD_RXN'
p1305
(lp1306
F5.620617815842028e-05
aF393.40843590511406
asS'ms_GalactoseTransfer_mod'
p1307
(lp1308
F4.609826429828663e-05
aF2.6023038936456904
asS'ms_ISOCITDEH_RXN'
p1309
(lp1310
F1.837027493503191e-06
aF649.9998334845685
asS'bs_ACYLCOASYN_RXN_DODECANOATE_CO_A_ATP__LAUROYLCOA_CPD_PPI_AMP_45_'
p1311
(lp1312
F3.6798188843551035e-06
aF1000.0000063201193
asS'bs_GLUTAMATE_SYNTHASE_NADH_RXN'
p1313
(lp1314
F1.8329718492218378e-06
aF1000.0000081559715
asS'bs_GLUC1PURIDYLTRANS_RXN'
p1315
(lp1316
F-1000.0000044898945
aF999.9997576488116
asS'ms_sink_PALMITATE'
p1317
(lp1318
F1.883678136394175e-06
aF142.85698230125556
asS'bs_RXN1F_72'
p1319
(lp1320
F9.132049621678531e-05
aF11.204192157170295
asS'ms_DIHYDROOROT_RXN'
p1321
(lp1322
F0.00010317135427155375
aF145.45264598781932
asS'ms_sink_MET'
p1323
(lp1324
F1.6004293861508198e-06
aF949.2265439749332
asS'bs_MALONYL_COA_ACP_TRANSACYL_RXN'
p1325
(lp1326
F0.0002219644370894877
aF999.9999994049346
asS'ms_EC_5_1_3_15_chloroplast'
p1327
(lp1328
F-235.71418434516585
aF-9.231926766396868e-06
asS'bs_MALATE_DEH_RXN_peroxisome'
p1329
(lp1330
F3.6904363884301527e-06
aF38.64852707278799
asS'bs_PEPCARBOXYKIN_RXN'
p1331
(lp1332
F1.8394182162852592e-06
aF1000.000008168098
asS'bs_EC_2_3_1_133'
p1333
(lp1334
F5.619576456680243e-06
aF39.21557202079223
asS'ms_ChloroplasticATPase_mod_chloroplast'
p1335
(lp1336
F5.447921525955987e-05
aF78.57137349734964
asS'ms_ACSERLY_RXN'
p1337
(lp1338
F5.557681775392002e-06
aF333.333183776654
asS'ms_chloroplast_glycolate_exchange'
p1339
(lp1340
F1.310770188231406e-05
aF48.25259118944326
asS'ms_RXN_9627'
p1341
(lp1342
F3.6889497304803585e-06
aF999.9996316306818
asS'ms_sink_PRO'
p1343
(lp1344
F1.8338193002816108e-06
aF999.999927351959
asS'ms_AMPSYN_RXN'
p1345
(lp1346
F0.0001266488853373956
aF999.9998420048129
asS'ms_RXN4FS_4'
p1347
(lp1348
F1.3295123944156995e-05
aF64.46872928465667
asS'ms_mitochondrion_serine_exchange'
p1349
(lp1350
F-500.0000031654651
aF-1.838379048788903e-06
asS'bs_OXALATE_OXIDASE_RXN'
p1351
(lp1352
F1.6443149431971047e-06
aF78.43157429066851
asS'bs_RXN_821_mod'
p1353
(lp1354
F1.8342400405845871e-06
aF1000.0000081581172
asS'ms_RXN4FS_2'
p1355
(lp1356
F1.3295123911406933e-05
aF64.46873294539654
asS'ms_RXN4FS_3'
p1357
(lp1358
F1.3295123833065954e-05
aF64.46876167410618
asS'ms_PHOSGLYPHOS_RXN_chloroplast'
p1359
(lp1360
F1.8476406877243612e-06
aF235.71417278713045
asS'ms_GLUC1PURIDYLTRANS_RXN'
p1361
(lp1362
F-1000.0000044835595
aF999.999584487793
asS'bs_DIHYDROXYISOVALDEHYDRAT_RXN'
p1363
(lp1364
F5.543154422169168e-06
aF1000.0000045519604
asS'ms_RXN_9644'
p1365
(lp1366
F5.896917145700872e-05
aF124.99981785498272
asS'bs_RXN_8389_mod'
p1367
(lp1368
F4.9328766658790176e-05
aF0.31510276978798335
asS'plasmodesmata_ms_phosphate_bs_phosphate'
p1369
(lp1370
F-1000.0000081660597
aF1000.0000081585795
asS'ms_MALATE_DEHYDROGENASE_NADP__RXN_chloroplast'
p1371
(lp1372
F1.8391111978512543e-06
aF1000.0000063614353
asS'ms_sink_LINOLEIC_ACID'
p1373
(lp1374
F1.728228416292009e-06
aF124.99985948468199
asS'bs_MannoseTransfer_mod'
p1375
(lp1376
F6.884619081381094e-05
aF4.164818806015377
asS'bs_TotalBiomassSink'
p1377
(lp1378
F4.454945971717975e-05
aF61.23065826033719
asS'bs_RXN_9658'
p1379
(lp1380
F0.00021380641326273795
aF142.85694010641024
asS'bs_CDPKIN_RXN'
p1381
(lp1382
F-78.43159295115888
aF1000.0000081652055
asS'bs_RXN_9657'
p1383
(lp1384
F0.00021380641466928064
aF142.85700372003487
asS'bs_RXN_3521_chloroplast'
p1385
(lp1386
F1.322131486098917e-05
aF78.43158180319345
asS'ms_TRANSALDOL_RXN'
p1387
(lp1388
F1.8156850367981293e-06
aF472.0569671575678
asS'bs_HOMOSERDEHYDROG_RXN_HOMO_SER_NAD__L_ASPARTATE_SEMIALDEHYDE_NADH_PROTON_51_'
p1389
(lp1390
F1.83343415966641e-06
aF999.9999880435142
asS'ms_RXN_2981'
p1391
(lp1392
F3.688726450361518e-06
aF999.99960175861
asS'ms_RXN_9531'
p1393
(lp1394
F0.00021345063259906234
aF142.85699618754734
asS'ms_RXN_9532'
p1395
(lp1396
F0.00021381114905990055
aF142.85699618266068
asS'ms_RXN_9533'
p1397
(lp1398
F0.00021381114936697943
aF142.85699608876484
asS'ms_PRPPAMIDOTRANS_RXN'
p1399
(lp1400
F0.00010312749612914305
aF152.71607180031322
asS'ms_RXN_9535'
p1401
(lp1402
F0.00021378738063541376
aF142.85699618470719
asS'ms_RXN_9536'
p1403
(lp1404
F0.0002137904504532505
aF142.85699616480792
asS'ms_RXN_9537'
p1405
(lp1406
F0.00021381115189565881
aF142.85699621015527
asS'ms_peroxisome_O2_exchange'
p1407
(lp1408
F9.276538135674054e-06
aF24.12623116979975
asS'bs_GLYOHMETRANS_RXN'
p1409
(lp1410
F0.0001290324293061127
aF1000.0000081752456
asS'bs_mitochondrion_water_exchange'
p1411
(lp1412
F-679.7435005417442
aF999.9998664097506
asS'bs_GLYCERATE_DEHYDROGENASE_RXN_peroxisome'
p1413
(lp1414
F3.6904363903642067e-06
aF38.64852707278794
asS'bs_DXPREDISOM_RXN'
p1415
(lp1416
F1.8454379191558574e-05
aF44.8178798977712
asS'ms_HomogalacturonanSynthesis_mod'
p1417
(lp1418
F7.228461371832631e-06
aF999.9999166711834
asS'bs_RXN_8287'
p1419
(lp1420
F7.366082097224279e-06
aF999.9999998541069
asS'bs_PHENYLALANINE_AMMONIA_LYASE_RXN'
p1421
(lp1422
F0.00011247331951577677
aF78.43154975200689
asS'bs_RXN_13158'
p1423
(lp1424
F1.8458236282631595e-06
aF1000.0000030664297
asS'ms_SULFITE_OXIDASE_RXN'
p1425
(lp1426
F1.8322308802126317e-06
aF999.9995942090869
asS'ms_RXN1F_10'
p1427
(lp1428
F8.326507703693489e-05
aF72.06173290055041
asS'ms_EC_1_8_5_1'
p1429
(lp1430
F3.6831484177708967e-06
aF820.8763953522824
asS'bs_sink_TYR'
p1431
(lp1432
F1.83488543166753e-06
aF1000.000008160796
asS'bs_RXN0_302'
p1433
(lp1434
F1.84516914071395e-05
aF44.81787989777111
asS'ms_sink_Arabinoxylan_monomer_equivalent'
p1435
(lp1436
F3.5958836139064992e-06
aF499.99993093724805
asS'ms_GLUTSEMIALDEHYDROG_RXN'
p1437
(lp1438
F3.6889665580840136e-06
aF1000.0000063704516
asS'bs_THIOREDOXIN_REDUCT_NADPH_RXN'
p1439
(lp1440
F6.957320924467666e-05
aF313.7276254556591
asS'plasmodesmata_ms_CYS_bs_CYS'
p1441
(lp1442
F-1000.0000083152679
aF1000.0000081676178
asS'ms_GLYOHMETRANS_RXN'
p1443
(lp1444
F0.0002831736148658816
aF949.225723591612
asS'ms_ACYLCOASYN_RXN_BUTYRIC_ACID_CO_A_ATP__BUTYRYL_COA_PPI_AMP_43_'
p1445
(lp1446
F3.6889497145632948e-06
aF999.9996111368162
asS'bs_DAHPSYN_RXN'
p1447
(lp1448
F7.211677289706514e-05
aF652.0539149795145
asS'ms_RXN_5682'
p1449
(lp1450
F5.5274680268213166e-05
aF653.255873973458
asS'ms_RXN0_5114'
p1451
(lp1452
F5.53899785248681e-06
aF1000.0000045007981
asS'bs_sink_PRO'
p1453
(lp1454
F1.8329070317779248e-06
aF999.9999324058226
asS'ms_MannoseTransfer_mod'
p1455
(lp1456
F6.904585095765482e-05
aF5.439745091592484
asS'ms_DXS_RXN'
p1457
(lp1458
F1.8370420420406363e-05
aF288.2560096770098
asS'ms_LigninSink'
p1459
(lp1460
F7.0225364188139e-05
aF6.3972871336766755
asS'bs_GMP_SYN_GLUT_RXN'
p1461
(lp1462
F9.872325368946627e-05
aF78.43160046069485
asS'ms_EC_1_18_1_2_chloroplast'
p1463
(lp1464
F-999.9999954474063
aF137.4997160759126
asS'bs_sink_PALMITATE'
p1465
(lp1466
F1.8717030969543516e-06
aF142.85698229384948
asS'ms_GLUC1PADENYLTRANS_RXN_chloroplast'
p1467
(lp1468
F9.231926769414961e-06
aF235.71418434516457
asS'ms_EC_2_7_1_148'
p1469
(lp1470
F1.8370420304227378e-05
aF288.2560098425499
asS'bs_MALIC_NADP_RXN'
p1471
(lp1472
F1.8352725448922793e-06
aF1000.0000081601721
asS'bs_ASPARTATE_SEMIALDEHYDE_DEHYDROGENASE_RXN'
p1473
(lp1474
F2.7813316048670537e-05
aF1000.0000063847991
asS'bs_RXN_9623'
p1475
(lp1476
F1.336911985475725e-05
aF136.5258663843559
asS'bs_RXN_2121'
p1477
(lp1478
F7.902396004446635e-06
aF39.215545922645205
asS'bs_METHYLENETHFDEHYDROG_NADP_RXN'
p1479
(lp1480
F0.00012340604331424244
aF534.7719993559867
asS'ms_chloroplast_glycolate_glycerate_exchange'
p1481
(lp1482
F1.8507906047583278e-06
aF40.053304911791436
asS'bs_chloroplast_malate_exchange'
p1483
(lp1484
F-137.49977196973606
aF755.0778188063265
asS'bs_DIAMINOPIMDECARB_RXN'
p1485
(lp1486
F1.2965841995902453e-05
aF999.9999862739332
asS'bs_mitochondrion_ammonia_exchange'
p1487
(lp1488
F-500.00000317754046
aF-1.8415992613375046e-06
asS'bs_EC_6_2_1_34'
p1489
(lp1490
F3.7319087577364156e-06
aF39.215567845075896
asS'plasmodesmata_ms_PYRUVATE_bs_PYRUVATE'
p1491
(lp1492
F-1000.0000081558
aF1000.0000081558425
asS'bs__4_2_1_61_RXN'
p1493
(lp1494
F0.00021380641390591492
aF142.85693646804137
asS'ms_chloroplast_proton_exchange'
p1495
(lp1496
F-991.071334439263
aF1000.0000081655719
asS'ms_RXN_9588'
p1497
(lp1498
F3.7655013128124176e-06
aF12.560258908847446
asS'ms_sink_LEU'
p1499
(lp1500
F1.8278265964153469e-06
aF689.4188792364578
asS'bs_HomogalacturonanSynthesis_mod'
p1501
(lp1502
F7.221087094652309e-06
aF999.9999359491374
asS'ms__3PGAREARR_RXN'
p1503
(lp1504
F-1000.0000063316418
aF1000.0000063110507
asS'bs_LinolenoylLipase_mod'
p1505
(lp1506
F7.097618673305604e-05
aF26.143779180846842
asS'ms_peroxisome_water_exchange'
p1507
(lp1508
F-48.25254587890898
aF-9.25033610559337e-06
asS'ms_GLUTAMIDOTRANS_RXN'
p1509
(lp1510
F6.237802054241585e-05
aF393.40843426650196
asS'bs_RXN_2622'
p1511
(lp1512
F5.620759647951006e-06
aF39.21553770575348
asS'bs_RXN_9655'
p1513
(lp1514
F0.00021380641210787504
aF142.8569793064164
asS'bs_EC_2_3_1_180'
p1515
(lp1516
F0.00021380641606760854
aF142.8569644390834
asS'bs_RXN_2621'
p1517
(lp1518
F5.620759569753358e-06
aF39.21557202079221
asS'bs_TRANS_CINNAMATE_4_MONOOXYGENASE_RXN'
p1519
(lp1520
F0.00011247331949629583
aF78.4315497520067
asS'bs_AICARTRANSFORM_RXN'
p1521
(lp1522
F0.00012523400185390052
aF534.7719977469541
asS'ms_IPPISOM_RXN'
p1523
(lp1524
F-216.1924265856772
aF72.06277200210164
asS'plasmodesmata_ms__2_KETOGLUTARATE_bs__2_KETOGLUTARATE'
p1525
(lp1526
F-1000.0000081564293
aF1000.0000081564918
asS'ms_ComplexIII_mod_mitochondrion'
p1527
(lp1528
F0.00012516693109110397
aF499.9999829282187
asS'ms_RXN_6161'
p1529
(lp1530
F3.6875365595890708e-06
aF975.4379397257123
asS'bs_AICARSYN_RXN'
p1531
(lp1532
F0.00010362090007293501
aF156.86360115711648
asS'bs_N_ACETYLGLUTPREDUCT_RXN'
p1533
(lp1534
F1.1084962619977074e-05
aF1000.0000045551884
asS'ms_sink_VAL'
p1535
(lp1536
F1.8312827216182147e-06
aF999.9999465042158
asS'bs_ALANINE_AMINOTRANSFERASE_RXN'
p1537
(lp1538
F-1000.0000081551625
aF1000.0000081596942
asS'bs_tx_MG_2'
p1539
(lp1540
F7.450871846727206e-05
aF72.46318245177616
asS'bs__1acylglycerol3POAcyltransferase_mod'
p1541
(lp1542
F5.7498524967528226e-05
aF65.21235495763864
asS'ms_DNAPolymerase_mod'
p1543
(lp1544
F3.7349976667127562e-06
aF71.9220714051373
asS'ms_MALIC_NADP_RXN'
p1545
(lp1546
F1.8345579129423089e-06
aF1000.0000081623134
asS'bs_OHMETHYLBILANESYN_RXN'
p1547
(lp1548
F9.132049688452808e-05
aF11.204192157170617
asS'bs_mitochondrion_cisaconitate_exchange'
p1549
(lp1550
F-5.277630263072163
aF-7.045387794931812e-05
asS'bs_RXN_1882'
p1551
(lp1552
F8.196952568020064e-05
aF999.9998664438472
asS'bs_DIHYDROFOLATEREDUCT_RXN'
p1553
(lp1554
F3.751899653124633e-05
aF78.43159876962515
asS'bs__3_DEHYDROSPHINGANINE_REDUCTASE_RXN'
p1555
(lp1556
F1.3369119756124993e-05
aF136.52587076539868
asS'bs_RXN4FS_4'
p1557
(lp1558
F1.3276577745687879e-05
aF61.037151554159465
asS'ms_MEVALONATE_KINASE_RXN'
p1559
(lp1560
F1.1238309455022916e-05
aF245.6287754726191
asS'bs_sink_MET'
p1561
(lp1562
F1.834883209615479e-06
aF1000.000008157214
asS'bs_GALACTOKIN_RXN'
p1563
(lp1564
F1.4447148619709535e-05
aF1000.0000081809798
asS'bs_ADENYL_KIN_RXN'
p1565
(lp1566
F1.8392750291161065e-06
aF1000.0000082001045
asS'ms_PHOSPHASERSYN_RXN'
p1567
(lp1568
F3.806872549568538e-06
aF66.66653790675876
asS'ms_ACETYLORNDEACET_RXN'
p1569
(lp1570
F3.689646876933446e-06
aF994.6863997897522
asS'ms__3_DEHYDROQUINATE_DEHYDRATASE_RXN'
p1571
(lp1572
F0.0001446112368381977
aF653.2558789270236
asS'ms_BRANCHED_CHAINAMINOTRANSFERLEU_RXN'
p1573
(lp1574
F-689.4197293063327
aF-6.261028086206304e-05
asS'bs_CDPDIGLYSYN_RXN'
p1575
(lp1576
F1.9241488522306945e-05
aF63.962277856218485
asS'ms_DIAMINOPIMEPIM_RXN'
p1577
(lp1578
F5.402442554248391e-05
aF999.9999252390036
asS'ms_sink_OCTADEC_9_ENE_118_DIOIC_ACID'
p1579
(lp1580
F7.54986509444121e-06
aF124.99985838687631
asS'ms_sink_SULFOQUINOVOSYLDIACYLGLYCEROL'
p1581
(lp1582
F5.8428022586529994e-06
aF66.66649122633167
asS'bs_RXNQT_4142'
p1583
(lp1584
F9.320269761300265e-06
aF156.8635675677883
asS'bs_tx_HIS'
p1585
(lp1586
F-534.7719956503146
aF1000.00000985533
asS'bs_RXNQT_4141'
p1587
(lp1588
F9.320770128146746e-06
aF156.86356756778787
asS'bs_HemicelluloseSink'
p1589
(lp1590
F6.261197347855966e-05
aF13.837753039365449
asS'ms_RXN_12196'
p1591
(lp1592
F1.8360242686442645e-06
aF1000.0000081618697
asS'ms_RXN0_1133_mitochondrion'
p1593
(lp1594
F8.567609636965338e-05
aF649.9998728860901
asS'bs_EC_1_8_5_1'
p1595
(lp1596
F3.6911746175790792e-06
aF78.43157272320613
asS'ms_RIB5PISOM_RXN'
p1597
(lp1598
F-596.7045302180773
aF-0.0002509457386136345
asS'plasmodesmata_ms_PROTON_bs_PROTON'
p1599
(lp1600
F-1000.0000081554268
aF1000.000008156925
asS'ms_sink__Galactosyl_galactosyl_diacyl_glycerols_'
p1601
(lp1602
F3.763381121746627e-06
aF66.66652631242393
asS'ms_DUDPKIN_RXN'
p1603
(lp1604
F7.549730367454848e-05
aF71.92207145665083
asS'bs_XylanSynthase_mod'
p1605
(lp1606
F1.0968869949955695e-05
aF999.9999236415669
asS'bs_ADENYL_KIN_RXN_chloroplast'
p1607
(lp1608
F1.8330461897017158e-06
aF117.85709167369308
asS'ms_SUCROSE_SYNTHASE_RXN'
p1609
(lp1610
F-1000.0000082809041
aF999.9994597629291
asS'ms_RIBULOSE_BISPHOSPHATE_CARBOXYLASE_RXN_chloroplast'
p1611
(lp1612
F1.2904515741999965e-05
aF187.46161600984385
asS'bs_sink_OLEATE_CPD'
p1613
(lp1614
F1.9108613763858145e-06
aF78.43157191548183
asS'bs_mitochondrion_citrate_exchange'
p1615
(lp1616
F-578.4315404319051
aF-7.140783759641096e-05
asS'ms_MYO_INOSITOL_1_PHOSPHATE_SYNTHASE_RXN_alpha'
p1617
(lp1618
F1.862804379878125e-06
aF66.66650936310782
asS'bs__3PGAREARR_RXN'
p1619
(lp1620
F-1000.0000063357589
aF1000.0000063097864
asS'bs_RXN_12199'
p1621
(lp1622
F1.838832367990524e-06
aF999.9999039686755
asS'ms_RXNQT_4141'
p1623
(lp1624
F9.251790515116634e-06
aF374.9998752248267
asS'ms_chloroplast_pyruvate_exchange'
p1625
(lp1626
F-1000.0000044603877
aF117.85687020240947
asS'bs_N_ACETYLTRANSFER_RXN'
p1627
(lp1628
F3.6825044022821183e-06
aF999.9999398781368
asS'ms_GLYCOGENSYN_RXN_mod_chloroplast'
p1629
(lp1630
F9.232606445339878e-06
aF235.71418434516386
asS'ms_GDPREDUCT_RXN'
p1631
(lp1632
F-71.92199617065546
aF-6.485881315267377e-05
asS'bs_RXN0_882'
p1633
(lp1634
F1.8451691368892966e-05
aF44.817879897771036
asS'bs_EC_2_4_1_46'
p1635
(lp1636
F7.839775308534865e-06
aF65.21235637098154
asS'ms_EC_2_3_1_180'
p1637
(lp1638
F0.00021381116426658778
aF142.85699574954722
asS'bs_RXN_12196'
p1639
(lp1640
F1.8365729493793881e-06
aF1000.0000081633295
asS'ms_SERINE_C_PALMITOYLTRANSFERASE_RXN'
p1641
(lp1642
F1.3341707547082603e-05
aF136.18698445658057
asS'ms_RXN_9516'
p1643
(lp1644
F0.00021381115723047718
aF142.85699606225148
asS'bs_ACETYLGLUTKIN_RXN'
p1645
(lp1646
F1.10849626414111e-05
aF1000.0000045551884
asS'ms_RXN_2621'
p1647
(lp1648
F5.565829341003443e-06
aF321.3051555543585
asS'ms__2TRANSKETO_RXN_chloroplast'
p1649
(lp1650
F-78.57135027781787
aF-1.3021760032962997e-05
asS'ms_chloroplast_abstract_ferredoxin_exchange'
p1651
(lp1652
F0.00018031496162635233
aF1000.0000081574663
asS'ms_ProteinSink'
p1653
(lp1654
F6.393348426554386e-05
aF16.0013033175227
asS'bs_peroxisome_OAA_MAL_exchange'
p1655
(lp1656
F3.69043638555989e-06
aF38.64852705576939
asS'bs_OrganicAcidsSink'
p1657
(lp1658
F4.6068545777214716e-05
aF3.061312972028136
asS'ms_GAPOXNPHOSPHN_RXN'
p1659
(lp1660
F-1000.0000063303669
aF1000.0000063115954
asS'ms_RIB5PISOM_RXN_chloroplast'
p1661
(lp1662
F1.302675435768631e-05
aF78.57134996157633
asS'ms_EC_2_7_4_22'
p1663
(lp1664
F0.00010682991243128458
aF1000.0000082063866
asS'bs_EC_1_5_1_20'
p1665
(lp1666
F3.677233564984572e-06
aF999.999938642759
asS'bs_ArabinoseTransfer_mod'
p1667
(lp1668
F6.847245501749631e-05
aF7.582864749002065
asS'bs_EC_2_7_1_150'
p1669
(lp1670
F3.68924011471904e-06
aF1000.0000063283787
asS'bs__3_DEHYDROQUINATE_SYNTHASE_RXN'
p1671
(lp1672
F7.21167730785389e-05
aF652.0530804170114
asS'bs_EC_2_7_1_159'
p1673
(lp1674
F3.6892401147532467e-06
aF1000.0000063283787
asS'bs_ORNITHINE_GLU_AMINOTRANSFORASE_RXN'
p1675
(lp1676
F-620.0032490391715
aF1000.0000031847771
asS'ms_CDPREDUCT_RXN'
p1677
(lp1678
F7.203444943693356e-05
aF71.92207150208692
asS'bs_PRAISOM_RXN'
p1679
(lp1680
F5.95162178245135e-05
aF455.7438921296634
asS'ms_METHIONINE_S_METHYLTRANSFERASE_RXN'
p1681
(lp1682
F3.6930529741351493e-06
aF999.9992568376368
asS'ms_GLYCINE_AMINOTRANSFERASE_RXN_peroxisome'
p1683
(lp1684
F1.8594022298581688e-06
aF48.252588438220116
asS'bs_PREPHENATE_TRANSAMINE_RXN'
p1685
(lp1686
F7.401241941019064e-06
aF652.0510735318214
asS'ms_SUCROSE_PHOSPHATE_SYNTHASE_RXN'
p1687
(lp1688
F3.688954240783622e-06
aF1000.0000063187961
asS'ms_chloroplast_pep_exchange'
p1689
(lp1690
F-117.85704221360069
aF-1.8531937616920319e-06
asS'bs_MALATE_DEHYDROGENASE_NADP__RXN_chloroplast'
p1691
(lp1692
F1.8374666197182364e-06
aF1000.0000063257797
asS'ms_RIBULP3EPIM_RXN'
p1693
(lp1694
F-396.77979120769487
aF666.6664579882007
asS'bs_sink_TRP'
p1695
(lp1696
F1.8359559286872526e-06
aF455.74389205769296
asS'bs_RXN_969_peroxisome'
p1697
(lp1698
F9.442944791315409e-06
aF40.74807741065349
asS'bs_RXN4FS_2'
p1699
(lp1700
F1.327657770871832e-05
aF61.03714918450696
asS'ms_ACETYL_COA_CARBOXYLTRANSFER_RXN'
p1701
(lp1702
F1.8351310814784067e-06
aF999.9999974298646
asS'bs_RXN_13191'
p1703
(lp1704
F9.249977218302088e-05
aF11.204192157170231
asS'ms_SUCROSE_PHOSPHATASE_RXN'
p1705
(lp1706
F3.6889542299052254e-06
aF1000.000006318796
asS'ms_sink_L_ALPHA_ALANINE'
p1707
(lp1708
F1.8348913945859485e-06
aF1000.0000081552091
asS'bs_sink_LEU'
p1709
(lp1710
F1.834876223290007e-06
aF1000.000008161266
asS'ms_RXN_743'
p1711
(lp1712
F3.7655012883278257e-06
aF12.560259681776872
asS'ms_RXN_1223'
p1713
(lp1714
F5.842802312467049e-06
aF66.66649145355693
asS'ms_RXN_1224'
p1715
(lp1716
F5.8428023331108005e-06
aF66.66648780420704
asS'ms_sink_1_4_beta_D_xylan_monomer_equivalent'
p1717
(lp1718
F1.8404314023654324e-06
aF999.9999309804048
asS'ms__2TRANSKETO_RXN'
p1719
(lp1720
F-435.5033706276966
aF333.3330837608024
asS'bs_sink_ASN'
p1721
(lp1722
F1.8366629023069546e-06
aF1000.0000081695381
asS'ms_GlucomannanSynthase_mod'
p1723
(lp1724
F3.6836785453545464e-06
aF999.9998516014766
asS'bs_tx__Pi_'
p1725
(lp1726
F0.00021282182769089691
aF405.1935879881587
asS'ms_UDP_ARABINOSE_4_EPIMERASE_RXN'
p1727
(lp1728
F7.607865710116193e-05
aF499.9999198196427
asS'ms_PHOSPHAGLYPSYN_RXN'
p1729
(lp1730
F5.763612835435494e-06
aF66.66652063085202
asS'ms_S_ADENMETSYN_RXN'
p1731
(lp1732
F0.0002013209452005945
aF999.9992567753844
asS'bs_tx_SER'
p1733
(lp1734
F-1000.0000081655133
aF1000.0000081551692
asS'ms_RXN0_1132_mitochondrion'
p1735
(lp1736
F8.783032095938028e-05
aF649.999904678879
asS'ms_sink_L_ASPARTATE'
p1737
(lp1738
F1.8348577881463501e-06
aF1000.0000081561138
asS'bs_RXN_3522'
p1739
(lp1740
F1.8456630565984438e-06
aF78.43156850344963
asS'bs_CarbohydratesSink'
p1741
(lp1742
F4.556171989376391e-05
aF34.59534388058199
asS'bs_OROTPDECARB_RXN'
p1743
(lp1744
F8.896008671432747e-05
aF156.86360115704545
asS'bs_RXN_9539'
p1745
(lp1746
F0.00021380641327552663
aF142.85698170380022
asS'bs__6PGLUCONOLACT_RXN'
p1747
(lp1748
F5.469775658651429e-06
aF1000.0000045138388
asS'bs_PEPCARBOX_RXN'
p1749
(lp1750
F3.6741268310048515e-06
aF999.917634205007
asS'ms_PEPDEPHOS_RXN'
p1751
(lp1752
F-1000.0000081639462
aF1000.0000081556457
asS'bs_F16ALDOLASE_RXN'
p1753
(lp1754
F-739.9322003331317
aF1000.00000818406
asS'bs_mitochondrion_fumarate_exchange'
p1755
(lp1756
F0.00013801732097532403
aF999.999934150304
asS'ms_EC_2_1_1_103'
p1757
(lp1758
F1.3295123582974556e-05
aF64.46837984642916
asS'bs_CDPREDUCT_RXN'
p1759
(lp1760
F6.144800622866447e-05
aF78.43159438955526
asS'bs_BRANCHED_CHAINAMINOTRANSFERLEU_RXN'
p1761
(lp1762
F-1000.0000030664295
aF-1.845823632040276e-06
asS'bs_PhotosystemII_mod_chloroplast'
p1763
(lp1764
F1.388983241322326e-06
aF68.74994273601432
asS'bs_sink_1_3_beta_D_glucan_monomer_equivalent'
p1765
(lp1766
F3.6805389142361452e-06
aF1000.0000063249804
asS'bs_RXN_3521'
p1767
(lp1768
F7.394924353495416e-06
aF78.43157207438558
asS'bs_OROPRIBTRANS_RXN'
p1769
(lp1770
F0.00010316496408361893
aF156.86360115704395
asS'bs_RXN_2581'
p1771
(lp1772
F5.620759723840116e-06
aF39.215572020793054
asS'bs_EC_5_1_3_15_chloroplast'
p1773
(lp1774
F-235.7141995904373
aF-9.238082958717975e-06
asS'ms__1TRANSKETO_RXN_chloroplast'
p1775
(lp1776
F1.302675929546072e-05
aF78.57134995159169
asS'ms_GLUTDEHYD_RXN'
p1777
(lp1778
F1.83500174793399e-06
aF1000.000008159446
asS'bs_XyloglucanSynthesis_mod'
p1779
(lp1780
F3.6953271027738606e-06
aF940.7309613757153
asS'bs_tx_MET'
p1781
(lp1782
F-1000.0000081753705
aF1000.000008155927
asS'ms_RXN_6182'
p1783
(lp1784
F1.83490478803617e-06
aF1000.0000081559158
asS'bs_RXN_9667'
p1785
(lp1786
F7.097618684798711e-05
aF26.14352014120345
asS'ms_HOMOSERDEHYDROG_RXN_HOMO_SER_NAD__L_ASPARTATE_SEMIALDEHYDE_NADH_PROTON_51_'
p1787
(lp1788
F1.832186701948178e-06
aF999.9999793097659
asS'bs_DIACYLGLYKIN_RXN'
p1789
(lp1790
F1.832567819250202e-06
aF999.9999806367409
asS'bs_GLYRIBONUCSYN_RXN'
p1791
(lp1792
F0.00010377930438257636
aF156.86365287086633
asS'bs_RXN_9663'
p1793
(lp1794
F0.00021380641426801164
aF142.85698170380036
asS'bs_RXN_9662'
p1795
(lp1796
F0.00021342515899451883
aF142.8570757619079
asS'bs_RXN_9661'
p1797
(lp1798
F0.00021380641227758388
aF142.8569781637049
asS'bs_RXN_9660'
p1799
(lp1800
F0.00021380641206659155
aF142.85700389963725
asS'bs_MALATE_DEH_RXN'
p1801
(lp1802
F-1000.000008190985
aF1000.0000081572214
asS'ms_DGDPKIN_RXN'
p1803
(lp1804
F8.043802706524304e-05
aF71.92207143821196
asS'bs_PHOSPHOGLUCMUT_RXN'
p1805
(lp1806
F-999.9997446100534
aF1000.000008167062
asS'bs_RXN_9669'
p1807
(lp1808
F5.896686909765108e-05
aF39.215549661869424
asS'ms_CELLULOSE_SYNTHASE_mod'
p1809
(lp1810
F5.53505113589205e-05
aF1000.0000081823621
asS'ms_mitochondrion_glycine_exchange'
p1811
(lp1812
F1.8266830065678807e-06
aF1000.0000081602603
asS'bs_chloroplast_light_exchange'
p1813
(lp1814
F5.463670397006133e-05
aF549.9999448070347
asS'bs_PYRROLINECARBDEHYDROG_RXN'
p1815
(lp1816
F1.8373902409036407e-06
aF999.9999196707297
asS'ms_RXN_7660'
p1817
(lp1818
F5.599920847490882e-06
aF72.06181832316835
asS'bs_sink_LYS'
p1819
(lp1820
F1.8348983007954124e-06
aF1000.0000081564151
asS'ms_CDPKIN_RXN'
p1821
(lp1822
F-71.92207152372822
aF1000.0000081649333
asS'bs_tx_CPD_397'
p1823
(lp1824
F-999.9996957031063
aF943.2186901842348
asS'ms_PROTOPORGENOXI_RXN'
p1825
(lp1826
F8.420236824608577e-05
aF72.06152497079157
asS'ms_ALANINE__GLYOXYLATE_AMINOTRANSFERASE_RXN'
p1827
(lp1828
F1.8316013083044622e-06
aF499.9999133381631
asS'ms_RXN_7659'
p1829
(lp1830
F5.599920786486404e-06
aF72.06276661487327
asS'bs_PHOSGLYPHOS_RXN_chloroplast'
p1831
(lp1832
F1.835683750769923e-06
aF235.7141842308898
asS'ms_GLUTDECARBOX_RXN'
p1833
(lp1834
F7.389400542111638e-06
aF499.99987573343634
asS'ms__2PGADEHYDRAT_RXN'
p1835
(lp1836
F-1000.0000063316418
aF1000.0000063110507
asS'bs_sink_STEARIC_ACID'
p1837
(lp1838
F1.83810436083628e-06
aF124.99985220591009
asS'ms_DCDPKIN_RXN'
p1839
(lp1840
F7.143766142999125e-05
aF71.92207192900815
asS'ms_CyclicElectronFlowPSI_mod_chloroplast'
p1841
(lp1842
F1.8321567510851534e-06
aF274.9999369743867
asS'bs_RXN_9528'
p1843
(lp1844
F0.00021380641217320207
aF142.85698170380064
asS'bs_CAFFEOYL_COA_O_METHYLTRANSFERASE_RXN'
p1845
(lp1846
F1.4801561192346983e-05
aF39.21557712218474
asS'ms_MYO_INOSITOL_1_PHOSPHATE_SYNTHASE_RXN_beta'
p1847
(lp1848
F1.8627780254575532e-06
aF66.6665087434167
asS'bs__3_1_2_14_RXN_mod'
p1849
(lp1850
F6.970486858379325e-05
aF78.43157239163288
asS'bs_RXN_9524'
p1851
(lp1852
F0.0002138064127716779
aF142.85700389963725
asS'ms_GLU6PDEHYDROG_RXN'
p1853
(lp1854
F5.496960739834005e-06
aF1000.0000045135331
asS'bs_sink_SULFOQUINOVOSYLDIACYLGLYCEROL'
p1855
(lp1856
F5.8961501761372855e-06
aF64.58126521087453
asS'ms_RXN_1685'
p1857
(lp1858
F3.6819681985334526e-06
aF1000.000006332729
asS'bs_RXN_9520'
p1859
(lp1860
F0.00021380641358188335
aF142.85700333716358
asS'ms_sink_TYR'
p1861
(lp1862
F1.845056811805633e-06
aF653.2558761975572
asS'bs_GSAAMINOTRANS_RXN'
p1863
(lp1864
F7.756147847344953e-05
aF89.63621101382444
asS'bs_RXN_9523'
p1865
(lp1866
F0.00021380641300020498
aF142.8569817038009
asS'bs_ACYLCOASYN_RXN_BUTYRIC_ACID_CO_A_ATP__BUTYRYL_COA_PPI_AMP_43_'
p1867
(lp1868
F3.679818885025574e-06
aF1000.0000063201193
asS'ms_GMP_SYN_GLUT_RXN'
p1869
(lp1870
F0.00011149412318711893
aF76.3451437055808
asS'ms_FERREDOXIN__NITRITE_REDUCTASE_RXN'
p1871
(lp1872
F3.6939509506599393e-06
aF166.66651378041567
asS'ms_IGPSYN_RXN'
p1873
(lp1874
F5.9803483728585755e-05
aF401.8322350884387
asS'bs_GLUTATHIONE_REDUCT_NADPH_RXN'
p1875
(lp1876
F2.4560334358211117e-05
aF490.19690957719655
asS'ms_GABATRANSAM_RXN'
p1877
(lp1878
F1.8370787080771952e-06
aF499.9998724009562
asS'ms_N_ACETYLTRANSFER_RXN'
p1879
(lp1880
F3.689646946020001e-06
aF994.6864244950319
asS'ms_UDPREDUCT_RXN'
p1881
(lp1882
F7.395013667009845e-05
aF71.9220731217223
asS'bs_RXN_6902'
p1883
(lp1884
F1.840219795862225e-06
aF156.86355701270628
asS'bs_CombinedBiomassReaction'
p1885
(lp1886
F4.8072711828169024e-05
aF61.2306415027762
asS'bs_GlucuronoxylanSynthesis_mod'
p1887
(lp1888
F3.698657277704544e-06
aF499.9999175526139
asS'bs_sink_ASCORBATE'
p1889
(lp1890
F9.320269750875227e-06
aF156.86356756778656
asS'ms_RXN_9659'
p1891
(lp1892
F0.00021345063350339887
aF142.8569961071351
asS'bs_CytochromeBF6Complex_mod_chloroplast'
p1893
(lp1894
F5.5822128330782275e-05
aF274.9999423950433
asS'bs_RXN_7674'
p1895
(lp1896
F3.950234803067737e-06
aF8.714289559374429
asS'ms_HYDROXYMETHYLGLUTARYL_COA_SYNTHASE_RXN'
p1897
(lp1898
F1.1238309432039673e-05
aF245.62859819486297
asS'ms_RXN_9655'
p1899
(lp1900
F0.00021345063263376066
aF142.8569961881377
asS'ms_CDPDIGLYSYN_RXN'
p1901
(lp1902
F1.909947258914215e-05
aF66.66652697475216
asS'ms_RXN_9657'
p1903
(lp1904
F0.00021381115880547032
aF142.85699619667633
asS'bs_HOMOSERKIN_RXN'
p1905
(lp1906
F1.1107026606338227e-05
aF999.9999917481955
asS'ms_sink_COUMARYL_ALCOHOL'
p1907
(lp1908
F1.7947027166882008e-06
aF403.1889064470955
asS'bs_chloroplast_pep_exchange'
p1909
(lp1910
F-117.85709162521606
aF-1.8330651708337031e-06
asS'bs_PhotosystemI_mod_chloroplast'
p1911
(lp1912
F1.6124628440483907e-06
aF549.999929715457
asS'bs_DTDPKIN_RXN'
p1913
(lp1914
F7.550970605974265e-05
aF78.43159826190939
asS'ms_THYMIDYLATESYN_RXN'
p1915
(lp1916
F6.219230978482163e-05
aF71.92206675494599
asS'bs_RXN_1125'
p1917
(lp1918
F7.977066497150305e-05
aF26.143556179128307
asS'bs_RXN_1126'
p1919
(lp1920
F1.8626118016085776e-06
aF39.21556502099352
asS'bs_ComplexIII_mod_mitochondrion'
p1921
(lp1922
F0.00012533627173616865
aF156.8636244377705
asS'ms_CATAL_RXN_peroxisome'
p1923
(lp1924
F9.276538136852364e-06
aF24.12623116978408
asS'bs_PRIBFAICARPISOM_RXN'
p1925
(lp1926
F1.4840177880409526e-05
aF534.7728482066884
asS'ms_DIHYDROPICRED_RXN_DELTA1_PIPERIDEINE_2_6_DICARBOXYLATE_NAD__2_3_DIHYDRODIPICOLINATE_NADH_PROTON_78_'
p1927
(lp1928
F1.8327745893640638e-06
aF999.9999216367943
asS'ms_LinoleoylLipase_mod'
p1929
(lp1930
F1.3196111988145306e-05
aF124.99985046378279
asS'ms_RXN_1461'
p1931
(lp1932
F3.6819681967763945e-06
aF1000.0000063327566
asS'bs_F16BDEPHOS_RXN'
p1933
(lp1934
F1.8395904205054895e-06
aF1000.0000081638434
asS'bs_FattyAcidSink'
p1935
(lp1936
F4.650905689916756e-05
aF1.5302933573750714
asS'ms_PHOSPHASERDECARB_RXN'
p1937
(lp1938
F1.84558471200293e-06
aF66.66654897105954
asS'ms_EC_1_8_5_1_chloroplast'
p1939
(lp1940
F5.529980693416063e-06
aF274.9999334076386
asS'ms_EC_2_4_1_123'
p1941
(lp1942
F7.364523295190321e-06
aF1000.0000002832613
asS'bs_SPHINGANINE_KINASE_RXN'
p1943
(lp1944
F3.7304651016205944e-06
aF135.3489197152903
asS'ms_SULFITE_REDUCTASE_FERREDOXIN_RXN'
p1945
(lp1946
F5.557681780501197e-06
aF333.333183776654
asS'bs_ChloroplasticATPase_mod_chloroplast'
p1947
(lp1948
F5.083490901489123e-05
aF78.57137163313827
asS'bs_PHOSPHOMEVALONATE_KINASE_RXN'
p1949
(lp1950
F1.1346469701858106e-05
aF44.81790834660907
asS'ms_PYRROLINECARBDEHYDROG_RXN'
p1951
(lp1952
F1.8381255764842884e-06
aF999.9999183449484
asS'bs_RXN_2122'
p1953
(lp1954
F7.901980116726106e-06
aF39.21554592264496
asS'ms_RXN0_1134_mitochondrion'
p1955
(lp1956
F8.56760963318208e-05
aF649.9998671240006
asS'ms_RXN_7674'
p1957
(lp1958
F3.7092736148087763e-06
aF69.60164846221801
asS'bs_SHIKIMATE_KINASE_RXN'
p1959
(lp1960
F7.211677616652938e-05
aF652.0530804164661
asS'ms_EC_1_2_1_13_chloroplast'
p1961
(lp1962
F1.8476406821530528e-06
aF235.71417278713196
asS'ms_mitochondrion_orotate_exchange'
p1963
(lp1964
F9.64964627812872e-05
aF152.7152296544148
asS'ms_RXN_7664'
p1965
(lp1966
F7.444265416000273e-06
aF72.06274099032484
asS'ms_XyloglucanSynthesis_mod'
p1967
(lp1968
F3.6957864405761927e-06
aF940.9360195423925
asS'bs_sink_L_1_PHOSPHATIDYL_GLYCEROL'
p1969
(lp1970
F5.8079409194732295e-06
aF63.9622652220735
asS'ms_mitochondrion_ATP_ADP_exchange'
p1971
(lp1972
F0.00013809587364199813
aF999.999995362327
asS'ms_ACONITATEDEHYDR_RXN_mitochondrion'
p1973
(lp1974
F8.284132406961506e-05
aF649.9998636739624
asS'bs_XyloseTransfer_mod'
p1975
(lp1976
F5.9850862813414646e-05
aF17.26962763350554
asS'ms_mitochondrion_isocitrate_exchange'
p1977
(lp1978
F-649.9998627232854
aF-5.3458002664551667e-05
asS'ms_ANTHRANSYN_RXN'
p1979
(lp1980
F5.980392947883905e-05
aF401.8322313560924
asS'ms_RXN1F_20'
p1981
(lp1982
F8.420236812163497e-05
aF72.06277389618195
asS'bs_ACSERLY_RXN'
p1983
(lp1984
F5.474694918150796e-06
aF333.3331837844806
asS'bs_PYRROLINECARBREDUCT_RXN_PRO_NADP__L_DELTA1_PYRROLINE_5_CARBOXYLATE_NADPH_PROTON_56_'
p1985
(lp1986
F1.8388973221873303e-06
aF1000.0000081569118
asS'bs_RXN0_5055'
p1987
(lp1988
F3.6800581922430626e-06
aF999.9999976186641
asS'bs_DIHYDROPICRED_RXN_DELTA1_PIPERIDEINE_2_6_DICARBOXYLATE_NADP__2_3_DIHYDRODIPICOLINATE_NADPH_PROTON_80_'
p1989
(lp1990
F1.8404540822923793e-06
aF999.9999830281905
asS'plasmodesmata_ms_SER_bs_SER'
p1991
(lp1992
F-1000.0000081655552
aF1000.0000081597223
asS'ms_sink_ARG'
p1993
(lp1994
F1.8412036866967798e-06
aF596.7929665847017
asS'ms_GLUTAMINESYN_RXN'
p1995
(lp1996
F0.00015296392149240668
aF1000.0000081606961
asS'ms_DADPKIN_RXN'
p1997
(lp1998
F7.789198351697364e-05
aF71.92207179760972
asS'bs_sink_LINOLENIC_ACID'
p1999
(lp2000
F1.7997235645403429e-06
aF26.143522558795695
asS'ms_tx_CARBON_DIOXIDE'
p2001
(lp2002
F-1000.0000081470671
aF1000.0000082035684
asS'ms__3_1_2_14_RXN_mod'
p2003
(lp2004
F7.002175002738566e-05
aF124.99993900500387
asS'ms_mitochondrion_water_exchange'
p2005
(lp2006
F-1000.0000081520159
aF999.9998159822035
asS'bs_RXN_1461'
p2007
(lp2008
F3.682420556847454e-06
aF1000.0000063614661
asS'bs_sink_Xyloglucan_monomer_equivalent'
p2009
(lp2010
F3.6957963521880885e-06
aF940.7309613449522
asS'ms_EC_1_8_4_9'
p2011
(lp2012
F1.704621764681371e-05
aF999.9996415891547
asS'ms_RXN_9660'
p2013
(lp2014
F0.00021381114885573498
aF142.85699572173291
asS'bs_ACETOOHBUTSYN_RXN'
p2015
(lp2016
F7.406696549019909e-06
aF1000.0000009849515
asS'ms_FPPSYN_RXN'
p2017
(lp2018
F8.420236712958738e-05
aF72.06277410493125
asS'ms_RXN_9661'
p2019
(lp2020
F0.00021345063346949226
aF142.85699618173228
asS'ms_EC_2_7_8_11'
p2021
(lp2022
F7.702141176848154e-06
aF66.66652241123457
asS'bs_LigninSink'
p2023
(lp2024
F7.016643003004497e-05
aF4.898001214209901
asS'bs_RXN_6182'
p2025
(lp2026
F1.8349179008660837e-06
aF1000.0000081558813
asS'ms_RXN0_6491_mod_mitochondrion'
p2027
(lp2028
F0.00010316067676568224
aF152.71607187515664
asS'ms_RXN_9663'
p2029
(lp2030
F0.00021381115804806124
aF142.85699564827226
asS'ms_GLUTATHIONE_REDUCT_NADPH_RXN'
p2031
(lp2032
F2.44813355860388e-05
aF1000.0000081655485
asS'bs_RXN_1841'
p2033
(lp2034
F6.77189317156309e-05
aF3.8396232791514966
asS'ms_MYO_INOSITOL_1_KINASE_RXN'
p2035
(lp2036
F1.8215957940208034e-06
aF999.9999981116168
asS'bs_GLUTDEHYD_RXN'
p2037
(lp2038
F1.8343020660567479e-06
aF1000.000008164491
asS'bs_HISTIDPHOS_RXN'
p2039
(lp2040
F1.4840177862930886e-05
aF534.7719979959569
asS'ms_mitochondrion_O2_exchange'
p2041
(lp2042
F0.00013753513921390962
aF249.9999832043855
asS'bs_GLUTAMATE_N_ACETYLTRANSFERASE_RXN'
p2043
(lp2044
F1.837346960981514e-06
aF999.9999990471889
asS'bs_ATPPHOSPHORIBOSYLTRANS_RXN'
p2045
(lp2046
F1.4840177989236102e-05
aF534.7719947382549
asS'ms_RXN_1142'
p2047
(lp2048
F8.06965698422913e-05
aF263.2898150440529
asS'bs_PRPPSYN_RXN'
p2049
(lp2050
F0.0001629127059130514
aF556.9837596481844
asS'ms_CMPKI_RXN'
p2051
(lp2052
F5.7881782484793184e-05
aF1000.0000082036521
asS'ms__3_DEHYDROSPHINGANINE_REDUCTASE_RXN'
p2053
(lp2054
F1.3340864637730477e-05
aF136.18694725183119
asS'ms_ArabinoxylanSynthesis_mod'
p2055
(lp2056
F3.595883556019319e-06
aF499.9999309372504
asS'bs_sink_ILE'
p2057
(lp2058
F1.8347709977517904e-06
aF1000.0000081570864
asS'ms_RXN_13462'
p2059
(lp2060
F7.162118603425431e-06
aF999.9999252275852
asS'ms_RXN0_5055'
p2061
(lp2062
F3.679997548430608e-06
aF999.9999987596651
asS'ms_RXN_961_chloroplast'
p2063
(lp2064
F1.3107709154573345e-05
aF48.252591189100336
asS'bs_GLUTATHIONE_REDUCT_NADPH_RXN_chloroplast'
p2065
(lp2066
F5.556795333879795e-06
aF78.4315807943355
asS'ms_DIHYDROXYMETVALDEHYDRAT_RXN'
p2067
(lp2068
F8.779746401087977e-05
aF937.5770324729909
asS'ms_sink_amylopectin_monomer_equivalent_chloroplast'
p2069
(lp2070
F3.6891942308232904e-06
aF235.71418244271845
asS'bs_CalloseSynthesis_mod'
p2071
(lp2072
F3.6805389148696988e-06
aF1000.0000063249879
asS'ms_ACETOLACTREDUCTOISOM_RXN'
p2073
(lp2074
F6.888344492589436e-05
aF1000.0000046125422
asS'ms_EC_2_7_7_60'
p2075
(lp2076
F1.837042037001091e-05
aF288.2560093680001
asS'bs_sink_THR'
p2077
(lp2078
F1.8349166880676673e-06
aF1000.000008158754
asS'bs__2TRANSKETO_RXN_chloroplast'
p2079
(lp2080
F-78.57134743081433
aF-1.0089878741752992e-06
asS'ms_SUCCCOASYN_RXN_mitochondrion'
p2081
(lp2082
F3.683667406899696e-06
aF333.33320392641843
asS'ms_RXN_1143'
p2083
(lp2084
F8.069656989646411e-05
aF263.290626553218
asS'ms_MALSYN_RXN'
p2085
(lp2086
F1.842386756648409e-06
aF499.999818812425
asS'ms_EC_3_5_2_9'
p2087
(lp2088
F3.671638180403772e-06
aF1000.0000063816959
asS'bs_GLUTAMINESYN_RXN'
p2089
(lp2090
F1.8360403318726487e-06
aF1000.0000081633254
asS'ms_DIPHOSPHOMEVALONTE_DECARBOXYLASE_RXN'
p2091
(lp2092
F1.1238309434591777e-05
aF245.62865542372145
asS'ms_GALACTOKIN_RXN'
p2093
(lp2094
F1.4537214702167733e-05
aF1000.0000081670552
asS'ms_CalloseSynthesis_mod'
p2095
(lp2096
F3.6804141239846623e-06
aF1000.0000063265009
asS'ms_ADENYLOSUCCINATE_SYNTHASE_RXN'
p2097
(lp2098
F0.00013249604584678642
aF999.999842004811
asS'bs_METHIONINE_S_METHYLTRANSFERASE_RXN'
p2099
(lp2100
F1.8311120752379146e-06
aF999.9997901676549
asS'bs_GABATRANSAM_RXN'
p2101
(lp2102
F1.8402352999631036e-06
aF156.86355688096899
asS'ms_PGPPHOSPHA_RXN'
p2103
(lp2104
F5.763612715625299e-06
aF66.66651579897822
asS'ms_RXN0_302'
p2105
(lp2106
F1.8370420221525737e-05
aF288.25600967701257
asS'bs_SERINE_O_ACETTRAN_RXN'
p2107
(lp2108
F5.474694943793641e-06
aF333.3331837844806
asS'bs_RXN_2944'
p2109
(lp2110
F3.679818897212603e-06
aF1000.0000063201193
asS'ms_ORNCARBAMTRANSFER_RXN'
p2111
(lp2112
F5.506448297851596e-05
aF749.9992744313853
asS'ms_RXN_9635'
p2113
(lp2114
F0.00014007057447000537
aF124.99987058701922
asS'ms_GLUTATHIONE_PEROXIDASE_RXN'
p2115
(lp2116
F1.8400241073842434e-06
aF820.8879842183642
asS'ms_EC_4_2_1_59'
p2117
(lp2118
F0.00021381115068321282
aF142.85707122841492
asS'bs_CHORISMATEMUT_RXN'
p2119
(lp2120
F7.401241943665276e-06
aF652.0536163365603
asS'bs_SUCCINATE_SEMIALDEHYDE_DEHYDROGENASE_RXN'
p2121
(lp2122
F7.42507304306837e-06
aF156.86355859389988
asS'ms_MMUM_RXN'
p2123
(lp2124
F3.69305296733628e-06
aF999.9992568376168
asS'ms_sink_CPD_649'
p2125
(lp2126
F3.7635061823263036e-06
aF135.35821765000182
asS'bs_DCDPKIN_RXN'
p2127
(lp2128
F7.084414466813217e-05
aF78.43159771499384
asS'ms_PhotosystemII_mod_chloroplast'
p2129
(lp2130
F1.8433307034548168e-06
aF68.7499452463464
asS'bs_PHOSPHASERSYN_RXN'
p2131
(lp2132
F3.837314783216011e-06
aF63.35504384495615
asS'bs_sink_DNA_base_equivalent'
p2133
(lp2134
F3.6648200475200948e-06
aF313.72762545174567
asS'ms_NITRATE_REDUCTASE_NADH_RXN'
p2135
(lp2136
F3.6939509403935747e-06
aF166.6665137804157
asS'bs_GammaGlutamyltransferase_mod'
p2137
(lp2138
F3.6805608652875276e-06
aF1000.0000063369342
asS'bs_Glycerol3POAcyltransferase_mod'
p2139
(lp2140
F5.758640661155268e-05
aF65.21236401292833
asS'ms_RNAPolymerase_mod'
p2141
(lp2142
F3.683370882178017e-06
aF76.34955184493334
asS'bs_MehlerReaction_chloroplast'
p2143
(lp2144
F1.3047805751104482e-05
aF156.86356102303444
asS'bs_MALSYN_RXN'
p2145
(lp2146
F1.8468820860054842e-06
aF156.86356020375663
asS'bs_sink_CPD_13612'
p2147
(lp2148
F1.858327051791175e-06
aF136.52586719109365
asS'bs_INORGPYROPHOSPHAT_RXN_chloroplast'
p2149
(lp2150
F1.2925008382086043e-05
aF235.71419813878182
asS'ms_NitrogenousBiomassSink'
p2151
(lp2152
F6.207926683931587e-05
aF18.392386802704458
asS'ms_CTPSYN_RXN'
p2153
(lp2154
F8.853145202398753e-05
aF76.34400499219434
asS'ms_RXN_12200'
p2155
(lp2156
F1.842741659221288e-06
aF999.9999511770096
asS'bs_RXN_961_chloroplast'
p2157
(lp2158
F7.3333833441936e-06
aF70.61112679284804
asS'bs_mitochondrion_glycine_exchange'
p2159
(lp2160
F1.8282664211386737e-06
aF1000.0000081606297
asS'bs_NucleicAcidSink'
p2161
(lp2162
F4.6406965364590135e-05
aF0.42220549320959055
asS'bs_sink_CYS'
p2163
(lp2164
F1.8350637856300424e-06
aF1000.0000081621804
asS'bs_CYSPH_RXN'
p2165
(lp2166
F3.6874816586529515e-06
aF949.1568694859964
asS'bs_tx_SULFATE'
p2167
(lp2168
F2.2627281109512294e-05
aF679.5942398924428
asS'bs_RXN_12195'
p2169
(lp2170
F1.8396357856048347e-06
aF1000.0000082991853
asS'ms_GlucuronoxylanSynthesis_mod'
p2171
(lp2172
F3.698747019836835e-06
aF499.9999152733832
asS'bs_EC_1_14_13_36'
p2173
(lp2174
F5.620759723841634e-06
aF39.21557202079227
asS'ms_sink_GLY'
p2175
(lp2176
F1.8349425577080273e-06
aF1000.0000081554076
asS'ms_EC_2_7_1_159'
p2177
(lp2178
F3.689011061584074e-06
aF1000.0000063406335
asS'bs_GLYC3PDEHYDROGBIOSYN_RXN_GLYCEROL_3P_NADP__DIHYDROXY_ACETONE_PHOSPHATE_NADPH_PROTON_59_'
p2179
(lp2180
F1.8427230887546988e-06
aF125.51920817463143
asS'bs_chloroplast_proton_exchange'
p2181
(lp2182
F-991.0713361179133
aF1000.0000081628009
asS'bs_RXN_9633'
p2183
(lp2184
F0.0001400617609759919
aF124.9998690625439
asS'bs_RXN_9634'
p2185
(lp2186
F0.00014006061226467072
aF124.999874485896
asS'bs_RXN_9635'
p2187
(lp2188
F0.00014006061420320532
aF124.99987031076867
asS'bs_RXN_11654'
p2189
(lp2190
F7.121218301058344e-05
aF39.21562681072541
asS'ms_sink_GLT'
p2191
(lp2192
F1.834910261910074e-06
aF1000.0000081565353
asS'bs_mitochondrion_serine_exchange'
p2193
(lp2194
F-500.0000031775404
aF-1.8415800118535262e-06
asS'ms_DTMPKI_RXN'
p2195
(lp2196
F7.395007258150145e-05
aF71.9220714051297
asS'bs_GLUTAMATE_SYNTHASE_FERREDOXIN_RXN'
p2197
(lp2198
F1.8372114362378243e-06
aF499.9998484425866
asS'ms_chloroplast_water_exchange'
p2199
(lp2200
F-785.7141787832344
aF314.28560248441875
asS'ms_sink_GLN'
p2201
(lp2202
F1.8393759083883815e-06
aF999.9998650642466
asS'bs_EC_3_1_3_25'
p2203
(lp2204
F1.1538373486438564e-05
aF1000.0000081877109
asS'ms_GSAAMINOTRANS_RXN'
p2205
(lp2206
F7.661554493200613e-05
aF576.51365206414
asS'bs_DXS_RXN'
p2207
(lp2208
F1.845169160078668e-05
aF44.817879897771114
asS'bs_peroxisome_glycerate_exchange'
p2209
(lp2210
F-38.64852705576941
aF-3.6905137511993925e-06
asS'ms_ACETOLACTSYN_RXN'
p2211
(lp2212
F6.88834449075696e-05
aF1000.0000046125422
asS'bs_tx_GLT'
p2213
(lp2214
F-1000.000008156474
aF1000.0000081551841
asS'ms_GPH_RXN_chloroplast'
p2215
(lp2216
F1.3107705728519816e-05
aF48.25259118942317
asS'bs_RXN_9632'
p2217
(lp2218
F1.8375029282540584e-06
aF124.99987278404419
asS'ms_EC_1_5_1_20'
p2219
(lp2220
F0.00020263421738280808
aF949.2257216258355
asS'bs_RXN3O_1380'
p2221
(lp2222
F3.844151383445953e-06
aF78.43156251489853
asS'ms_TotalBiomassSink'
p2223
(lp2224
F4.802904450598895e-05
aF79.9680483618397
asS'ms_GLUTRNAREDUCT_RXN'
p2225
(lp2226
F7.663685586009258e-05
aF576.5136521733069
asS'ms_chloroplast_TPT_GAP_exchange'
p2227
(lp2228
F-1000.0000081681118
aF1000.0000081626524
asS'ms_GPPSYN_RXN'
p2229
(lp2230
F8.420236713107057e-05
aF72.06159710806642
asS'ms_ALDOSE1EPIM_RXN'
p2231
(lp2232
F1.6593322361449188e-06
aF999.9995312144999
asS'bs_ALCOHOL_DEHYDROG_RXN'
p2233
(lp2234
F1.8465054303202187e-06
aF78.43156593052176
asS'bs_EC_6_3_4_16'
p2235
(lp2236
F1.833391418919406e-06
aF999.999847010206
asS'ms_RXN_13163'
p2237
(lp2238
F-689.4188792388909
aF-6.261028083444625e-05
asS'ms_RXN0_5224'
p2239
(lp2240
F0.00022016509364045783
aF1000.0000081590644
asS'ms_mitochondrion_CO2_exchange'
p2241
(lp2242
F-984.8483545991601
aF-8.894017156139099e-05
asS'ms_SUPEROX_DISMUT_RXN_chloroplast'
p2243
(lp2244
F1.2933614285814835e-05
aF274.9999352699024
asS'plasmodesmata_ms_CO2_bs_CO2'
p2245
(lp2246
F-0.3089958799262088
aF1000.000008159976
asS'bs_ACONITATEHYDR_RXN_mitochondrion'
p2247
(lp2248
F5.7004054019886205e-05
aF578.4315776943323
asS'ms_DTDPKIN_RXN'
p2249
(lp2250
F9.30435273465692e-05
aF71.921754380929
asS'bs_RXN_1841_1_KESTOTRIOSE_WATER__BETA_D_FRUCTOSE_SUCROSE_45_'
p2251
(lp2252
F-3.839619819359451
aF5.776981507550107
asS'plasmodesmata_ms_GLYCOLLATE_bs_GLYCOLLATE'
p2253
(lp2254
F-40.74786595795113
aF70.61089551551042
asS'plasmodesmata_ms_GLY_bs_GLY'
p2255
(lp2256
F-1000.0000081826004
aF1000.0000081568779
asS'bs_mitochondrion_malate_exchange'
p2257
(lp2258
F-1000.0000081692347
aF156.86352333800576
asS'bs_tx_VAL'
p2259
(lp2260
F-999.9999511152039
aF1000.0000081629222
asS'bs_RXN_13462'
p2261
(lp2262
F1.2965841997946174e-05
aF999.999986273933
asS'ms_OrganicAcidsSink'
p2263
(lp2264
F4.6066857231678006e-05
aF3.9982333496431237
asS'ms_RXN_2581'
p2265
(lp2266
F5.565758509381679e-06
aF321.3051559941913
asS'ms_GLYCERATE_DEHYDROGENASE_RXN_peroxisome'
p2267
(lp2268
F3.6638525765451653e-06
aF40.05332063424741
asS'bs_RXN_13398'
p2269
(lp2270
F3.950235517796144e-06
aF8.714293177464505
asS'bs_AMP_DEPHOSPHORYLATION_RXN'
p2271
(lp2272
F1.8391619139492964e-06
aF999.9997894743484
asS'bs_ISOCIT_CLEAV_RXN'
p2273
(lp2274
F5.161189174952909e-05
aF156.86355853921395
asS'bs_sink_PHOSPHATIDYLCHOLINE'
p2275
(lp2276
F1.3276577686781007e-05
aF61.037241556999824
asS'ms_RXN0_882'
p2277
(lp2278
F1.8370420172006754e-05
aF288.2560102580841
asS'bs_MYO_INOSITOL_1_PHOSPHATE_SYNTHASE_RXN_alpha'
p2279
(lp2280
F1.8670921098889038e-06
aF63.96227059407708
asS'ms_ADPREDUCT_RXN'
p2281
(lp2282
F-71.9220473096381
aF-8.06136338787629e-05
asS'ms_chloroplast_CO2_exchange'
p2283
(lp2284
F-999.999993452609
aF187.46140548550042
asS'ms_SUCCINATE_SEMIALDEHYDE_DEHYDROGENASE_RXN'
p2285
(lp2286
F7.389526361028121e-06
aF499.999874251246
asS'ms_tx__Light_'
p2287
(lp2288
F5.335806933726598e-05
aF549.9999439539323
asS'bs_OXALOACETASE_RXN_MOD'
p2289
(lp2290
F4.965666728740723e-05
aF78.43157435414315
asS'ms_SERINE_O_ACETTRAN_RXN'
p2291
(lp2292
F5.557681778866491e-06
aF333.33318377665404
asS'bs_sink_ARG'
p2293
(lp2294
F1.8347428924627796e-06
aF1000.0000081633257
asS'bs_chloroplast_TPT_G3P_exchange'
p2295
(lp2296
F-471.4284721969685
aF235.71418460742038
asS'bs_XylogalacturonanSynthesis_mod'
p2297
(lp2298
F3.698064520580506e-06
aF499.9999349406565
asS'bs_DIHYDROXYMETVALDEHYDRAT_RXN'
p2299
(lp2300
F7.4066965513502935e-06
aF1000.0000009852705
asS'ms_ACETOOHBUTSYN_RXN'
p2301
(lp2302
F8.77974634077034e-05
aF937.5778700595495
asS'ms__2_ISOPROPYLMALATESYN_RXN'
p2303
(lp2304
F6.261028080690057e-05
aF689.4188792265661
asS'bs_ADENOSYLHOMOCYSTEINASE_RXN'
p2305
(lp2306
F0.00020635095609054278
aF1000.000002673881
asS'ms_SHIKIMATE_5_DEHYDROGENASE_RXN'
p2307
(lp2308
F0.00014461123686012635
aF653.2558948705403
asS'ms_chloroplast_oxaloacetate_exchange'
p2309
(lp2310
F1.8391111939205064e-06
aF1000.0000063614353
asS'bs_EC_2_4_1_123'
p2311
(lp2312
F7.366081999792776e-06
aF999.9999998541059
asS'ms_LinolenoylLipase_mod'
p2313
(lp2314
F7.036997369089986e-05
aF124.99983160366307
asS'plasmodesmata_ms_NITRATE_bs_NITRATE'
p2315
(lp2316
F3.693950940248129e-06
aF166.66651378041567
asS'ms_UREASE_RXN'
p2317
(lp2318
F3.687125637515901e-06
aF749.9992754350893
asS'bs_chloroplast_water_exchange'
p2319
(lp2320
F-255.07782217371863
aF314.28561157880296
asS'ms_mitochondrion_malate_exchange'
p2321
(lp2322
F-1000.0000081551613
aF230.7690267037727
asS'ms_tx_OXYGEN_MOLECULE'
p2323
(lp2324
F-68.74918985629428
aF1000.000008172911
asS'ms_RXN_1103'
p2325
(lp2326
F7.433243170575738e-06
aF321.3051555361055
asS'ms_RXN_1102'
p2327
(lp2328
F7.161607650023848e-05
aF403.18890682338855
asS'ms_mitochondrion_cisaconitate_exchange'
p2329
(lp2330
F-6.8930914685955855
aF-7.029897387245132e-05
asS'ms_RXN_1104'
p2331
(lp2332
F3.7032600509837054e-06
aF321.30515218073276
asS'ms_RXN_1106'
p2333
(lp2334
F4.6910634300902435e-05
aF321.30598401063673
asS'bs_PHOSPHORIBULOKINASE_RXN_chloroplast'
p2335
(lp2336
F1.1009250365117502e-05
aF235.71420437930107
asS'ms_MDHFerredoxinReduction_chloroplast'
p2337
(lp2338
F1.8369588654137872e-06
aF549.9999349402423
asS'bs_UDPGLUCEPIM_RXN_mod'
p2339
(lp2340
F-130.42546644664395
aF999.9997187324104
asS'ms_GCVMULTI_RXN_mitochondrion'
p2341
(lp2342
F1.8383790552639482e-06
aF500.0000031654651
asS'bs_sink_OCTADEC_9_ENE_118_DIOIC_ACID'
p2343
(lp2344
F7.901980046498861e-06
aF39.2155459226451
asS'plasmodesmata_ms_SULFATE_bs_SULFATE'
p2345
(lp2346
F1.1392459233675002e-05
aF349.469622504004
asS'bs_UROGENDECARBOX_RXN'
p2347
(lp2348
F9.132049694297959e-05
aF11.204192157170446
asS'bs_tx_NITRATE'
p2349
(lp2350
F7.37540925577619e-06
aF333.33302805068445
asS'ms_PYRUVATEORTHOPHOSPHATE_DIKINASE_RXN_chloroplast'
p2351
(lp2352
F1.8531937589476993e-06
aF117.8570422134619
asS'ms_sink_RNA_base_equivalent'
p2353
(lp2354
F3.698538492351896e-06
aF305.43211972549346
asS'ms_ALCOHOL_DEHYDROG_RXN'
p2355
(lp2356
F1.8356691518647762e-06
aF999.999599229743
asS'bs_GLYOHMETRANS_RXN_mitochondrion'
p2357
(lp2358
F-500.0000031775404
aF-1.8415800120979325e-06
asS'bs_TYRAMINE_N_FERULOYLTRANSFERASE_RXN'
p2359
(lp2360
F5.597142517265493e-06
aF39.215607528868674
asS'ms_EC_2_7_1_90'
p2361
(lp2362
F1.8323058576531206e-06
aF1000.0000081728524
asS'ms_PHOSPHOGLUCMUT_RXN_chloroplast'
p2363
(lp2364
F-235.71418434516505
aF-9.231926768870366e-06
asS'bs_RXN0_5114'
p2365
(lp2366
F5.539165147546723e-06
aF1000.0000044993609
asS'bs_sink_CELLULOSE_monomer_equivalent'
p2367
(lp2368
F1.8333672212055051e-06
aF999.9999538175706
asS'bs_BRANCHED_CHAINAMINOTRANSFERILEU_RXN'
p2369
(lp2370
F-1000.0000009849514
aF-7.406909568810193e-06
asS'ms_UDPKIN_RXN'
p2371
(lp2372
F1.8382260179176436e-06
aF1000.000008161951
asS'bs_chloroplast_glycolate_exchange'
p2373
(lp2374
F7.324508790265793e-06
aF70.61112681020505
asS'plasmodesmata_ms_GLYCERATE_bs_GLYCERATE'
p2375
(lp2376
F-40.05331844236926
aF35.385959229794416
asS'ms_F16BDEPHOS_RXN_chloroplast'
p2377
(lp2378
F2.3994964383060467e-05
aF235.71418410183486
asS'ms_CYSPH_RXN'
p2379
(lp2380
F5.148482612814701e-05
aF949.2257205110226
asS'ms__4_2_1_58_RXN'
p2381
(lp2382
F0.00021345064238640073
aF142.85699562429318
asS'ms_RXN_9540'
p2383
(lp2384
F0.00021378738718634988
aF142.8569962655838
asS'bs_RXN_11501'
p2385
(lp2386
F7.366082086219194e-06
aF999.9999998541074
asS'bs_BRANCHED_CHAINAMINOTRANSFERVAL_RXN'
p2387
(lp2388
F-1000.0000008166934
aF999.9999454091882
asS'ms_ArabinoseTransfer_mod'
p2389
(lp2390
F2.2504530130730892e-05
aF9.903551038276808
asS'ms_RXN_9549'
p2391
(lp2392
F4.884197386730753e-05
aF142.85699495876094
asS'bs_sink_RNA_base_equivalent'
p2393
(lp2394
F3.6885058676899775e-06
aF313.72762009107566
asS'bs_EC_2_3_3_8'
p2395
(lp2396
F1.8364286276127196e-06
aF578.4315393390982
asS'bs_sink_CONIFERYL_ALCOHOL'
p2397
(lp2398
F1.8089392628933539e-06
aF39.21560197489195
asS'bs_peroxisome_glycine_exchange'
p2399
(lp2400
F-40.74807741064726
aF-9.442944712967165e-06
asS'bs_RXN_1781'
p2401
(lp2402
F1.9264724209311183e-06
aF9.61707747539925
asS'bs_NITRATE_REDUCTASE_NADH_RXN'
p2403
(lp2404
F3.682035222901713e-06
aF166.66651382862125
asS'ms_PRTRANS_RXN'
p2405
(lp2406
F5.9803855189476854e-05
aF401.83308268539076
asS'bs_RXN_MG_PROTOPORPHYRIN_METHYLESTER_SYN'
p2407
(lp2408
F9.132049666610645e-05
aF11.20419215717025
asS'bs_ISPH2_RXN_DELTA3_ISOPENTENYL_PP_NADP_WATER__HYDROXY_METHYL_BUTENYL_DIP_NADPH_PROTON_74_'
p2409
(lp2410
F1.8508536097977188e-06
aF44.817911830528146
asS'bs_ARGSUCCINLYA_RXN'
p2411
(lp2412
F3.6961860706379826e-06
aF999.9998511753171
asS'ms_OROTPDECARB_RXN'
p2413
(lp2414
F8.530021727218814e-05
aF152.71607186783785
asS'bs_GLYCINE_AMINOTRANSFERASE_RXN_peroxisome'
p2415
(lp2416
F1.871301365102059e-06
aF40.74785234790429
asS'ms_sink_ILE'
p2417
(lp2418
F1.6341753726259857e-06
aF937.5778700726019
asS'bs__1TRANSKETO_RXN'
p2419
(lp2420
F-469.206744508219
aF-1.8230569032953888e-06
asS'bs_EC_1_8_5_1_chloroplast'
p2421
(lp2422
F5.556795335434487e-06
aF78.43158079433516
asS'bs_EC_2_7_4_22'
p2423
(lp2424
F6.841002042598431e-05
aF1000.0000081909787
asS'ms_PGLUCISOM_RXN_chloroplast'
p2425
(lp2426
F-235.71418419209292
aF-9.231926764219356e-06
asS'ms_RXN_7666'
p2427
(lp2428
F7.444029156003246e-06
aF72.06294826218591
asS'bs_GLU6PDEHYDROG_RXN'
p2429
(lp2430
F5.469775680424106e-06
aF1000.0000045138388
asS'bs_RXN_1382'
p2431
(lp2432
F-63.35503343446718
aF61.037147349359884
asS'ms_RXN_7665'
p2433
(lp2434
F7.4440292090779785e-06
aF72.06252834294172
asS'bs_PRPPAMIDOTRANS_RXN'
p2435
(lp2436
F0.00010362113267981217
aF156.86360115711827
asS'ms_RXN_7663'
p2437
(lp2438
F7.444029335844631e-06
aF72.0629771555912
asS'ms_sink_SER'
p2439
(lp2440
F1.8349050711751066e-06
aF1000.0000081592473
asS'bs_SHIKIMATE_5_DEHYDROGENASE_RXN'
p2441
(lp2442
F7.211677399182744e-05
aF652.0532618294865
asS'ms_GLUTATHIONE_SYN_RXN'
p2443
(lp2444
F3.70665081739956e-06
aF1000.0000081818565
asS'ms_GenericNADOxidase_mod'
p2445
(lp2446
F1.83406567411847e-06
aF1000.000008168525
asS'ms_GLUTAMATE_DEHYDROGENASE_RXN'
p2447
(lp2448
F1.8387558101241137e-06
aF1000.0000081614049
asS'ms_RXN_9623'
p2449
(lp2450
F1.3340864821197868e-05
aF136.18706278080796
asS'bs_RXN_1143'
p2451
(lp2452
F7.977066499904005e-05
aF26.143561745446576
asS'bs_ARGINASE_RXN'
p2453
(lp2454
F3.675109451382766e-06
aF1000.0000063766039
asS'ms_RXN_821_mod'
p2455
(lp2456
F1.833853608229261e-06
aF1000.0000081573579
asS'bs_GALACTURIDYLYLTRANS_RXN'
p2457
(lp2458
F1.835103416469939e-06
aF1000.0000045324782
asS'ms_IMPCYCLOHYDROLASE_RXN'
p2459
(lp2460
F0.0001269750820369683
aF393.4084352466975
asS'ms_BIOTIN_CARBOXYL_RXN'
p2461
(lp2462
F3.6800163775526805e-06
aF999.999998691819
asS'ms_peroxisome_OAA_MAL_exchange'
p2463
(lp2464
F3.6638525716625693e-06
aF40.05332063439214
asS'ms_RXN1F_72'
p2465
(lp2466
F8.420236762811048e-05
aF72.0627739284702
asS'ms_ACETYLGLUTKIN_RXN'
p2467
(lp2468
F1.1085494397343682e-05
aF1000.0000045479549
asS'bs_sink_SINAPYL_ALCOHOL'
p2469
(lp2470
F1.765422748369657e-06
aF26.143553107278695
asS'ms_GUANPRIBOSYLTRAN_RXN'
p2471
(lp2472
F4.60760231877542e-05
aF3.0270172356887324
asS'bs_tx_LEU'
p2473
(lp2474
F-999.9998661978117
aF1000.0000081876789
asS'bs_GLUTSEMIALDEHYDROG_RXN'
p2475
(lp2476
F3.6918767293400083e-06
aF1000.0000063721751
asS'bs_GLUTAMATESYN_RXN'
p2477
(lp2478
F1.8385214748323556e-06
aF1000.0000082033453
asS'bs_RXN_8730'
p2479
(lp2480
F3.68924010973789e-06
aF1000.0000063283787
asS'bs_ComplexII_mod_mitochondrion'
p2481
(lp2482
F6.26760491003499e-05
aF156.86356658157018
asS'ms_TYRAMINE_N_FERULOYLTRANSFERASE_RXN'
p2483
(lp2484
F5.58281023293832e-06
aF211.36721275941142
asS'bs_PORPHOBILSYNTH_RXN'
p2485
(lp2486
F7.860961040540623e-05
aF44.81789096596819
asS'bs_RXN_5641'
p2487
(lp2488
F1.8462735520207525e-06
aF63.35540692803784
asS'ms_DIAMINOPIMDECARB_RXN'
p2489
(lp2490
F5.4024423835747595e-05
aF999.999925245382
asS'bs_RXN_5642'
p2491
(lp2492
F1.3276577461756364e-05
aF61.037150241814054
asS'ms_PHOSPHOGLUCMUT_RXN'
p2493
(lp2494
F-999.9995427761685
aF1000.0000081640184
asS'bs_RXN_9670'
p2495
(lp2496
F5.896686909753423e-05
aF39.21554966186965
asS'ms_PEPCARBOX_RXN'
p2497
(lp2498
F3.6798022763233134e-06
aF789.4736884275004
asS'bs_DIHYDRODIPICSYN_RXN'
p2499
(lp2500
F1.2965842007591887e-05
aF999.9999862739329
asS'bs_HISTAMINOTRANS_RXN'
p2501
(lp2502
F1.484017786191759e-05
aF534.7719977886079
asS'bs_GUANYL_KIN_RXN'
p2503
(lp2504
F9.872307860052687e-05
aF78.43160045693236
asS'ms__6PFRUCTPHOS_RXN'
p2505
(lp2506
F1.83397563629622e-06
aF1000.0000081603129
asS'bs_BIOTIN_CARBOXYL_RXN'
p2507
(lp2508
F3.680058192374034e-06
aF999.9999976186639
asS'bs_GAPOXNPHOSPHN_RXN'
p2509
(lp2510
F-1000.0000063431802
aF1000.0000081818598
asS'bs_mitochondrion_oxoglutarate_exchange'
p2511
(lp2512
F-385.62110961356336
aF156.86355605557253
asS'ms_SEDOBISALDOL_RXN_chloroplast'
p2513
(lp2514
F1.3026766666060468e-05
aF78.57135025983095
asS'ms_mitochondrion_oxoglutarate_exchange'
p2515
(lp2516
F-393.9392138118822
aF333.3332039062784
asS'bs_EC_2_5_1_19'
p2517
(lp2518
F6.827901766790119e-05
aF652.0543068155891
asS'bs_RXN_9549'
p2519
(lp2520
F5.114978456223734e-05
aF142.85699518956704
asS'ms_sink_LYS'
p2521
(lp2522
F1.8357613578087824e-06
aF999.9998697285807
asS'bs_EC_2_7_1_148'
p2523
(lp2524
F1.8451691489358235e-05
aF44.81787989777113
asS'ms_RXN_5641'
p2525
(lp2526
F1.8455854824227095e-06
aF66.66654914724919
asS'bs_UDP_GLUCURONATE_DECARBOXYLASE_RXN'
p2527
(lp2528
F7.786156141594003e-05
aF999.9999120175145
asS'bs_FUMHYDR_RXN_mitochondrion'
p2529
(lp2530
F0.0001826056433019141
aF1000.0000081813687
asS'ms__3_DEHYDROQUINATE_SYNTHASE_RXN'
p2531
(lp2532
F0.00014461123682902276
aF653.2558744236421
asS'bs_RXN_6161'
p2533
(lp2534
F3.6797249133592967e-06
aF999.9999458862376
asS'plasmodesmata_ms_MAL_bs_MAL'
p2535
(lp2536
F-1000.0000081701037
aF1000.0000081602611
as.