(dp0
S'ms_RXN_13614'
p1
(lp2
F9.07853169180683e-06
aF999.9999918168886
asS'ms_RXN_13617'
p3
(lp4
F5.717888196217712e-09
aF5.664303560536913e-09
asS'bs_TRANSENOYLCOARED_RXN_CPD_10267_NADP__T2_DECENOYL_COA_NADPH_PROTON_45_'
p5
(lp6
F-999.9999918209398
aF-9.08641482897346e-06
asS'ms_MALONYL_COA_DECARBOXYLASE_RXN'
p7
(lp8
F-1000.0000009209294
aF999.999265531201
asS'bs__2_4_1_218_RXN_CPD_12575_HYDROQUINONE__HYDROQUINONE_O_BETA_D_GLUCOPYRANOSIDE_UDP_PROTON_73_'
p9
(lp10
F-999.999991818186
aF999.9999918181876
asS'ms_ORNCARBAMTRANSFER_RXN'
p11
(lp12
F-999.9998997745245
aF1000.0000009090904
asS'ms_PRPPSYN_RXN'
p13
(lp14
F0.0006169830511478826
aF1000.0000009109025
asS'bs__2TRANSKETO_RXN'
p15
(lp16
F-696.6760679788043
aF333.33239224491007
asS'bs_RXNQT_4345_CPDQT_27_MET__CPDQT_340_CPD_479_32_'
p17
(lp18
F-1000.0000009090909
aF1000.0000009090908
asS'bs_RIB5PISOM_RXN_chloroplast'
p19
(lp20
F7.738427601038122e-05
aF142.80470812835404
asS'ms_RXN0_5462'
p21
(lp22
F-1000.0000009090915
aF1000.0000009090897
asS'ms_RXN66_26_5_ALPHA_CHOLESTA_724_DIEN_3_BETA_OL_NADH_OXYGEN_MOLECULE_PROTON__CPD_8646_NAD_WATER_84_'
p23
(lp24
F-1000.0000009090907
aF1000.0000009091018
asS'ms_RXN_12242_CPD_7526_CPD_9718__CPD_7496_CPD_12125_38_'
p25
(lp26
F-1000.0000009090901
aF1000.0000009090903
asS'bs_RXN_9546'
p27
(lp28
F-999.9999918180157
aF-9.08074749356367e-06
asS'bs_GLYOXI_RXN'
p29
(lp30
F9.081647857492252e-06
aF999.9999827278245
asS'ms_GLYOXI_RXN'
p31
(lp32
F9.081658609682582e-06
aF999.999982727783
asS'ms_MALATE_DEH_RXN_peroxisome'
p33
(lp34
F1.817181763899712e-05
aF999.9999100047255
asS'bs_DEOXYCYTIDINE_KINASE_RXN_DEOXYCYTIDINE_CTP__DCMP_CDP_PROTON_35_'
p35
(lp36
F-1000.0000009090912
aF1000.0000009103198
asS'ms_RXN_13681'
p37
(lp38
F-999.9999918181363
aF999.9999918182185
asS'bs_RXN_3584'
p39
(lp40
F-999.9999918181809
aF999.9999918181815
asS'ms_RXN_2205_2_OXO_5_METHYLTHIOPENTANOIC_ACID_L_ALPHA_ALANINE__HOMOMETHIONINE_PYRUVATE_74_'
p41
(lp42
F-1000.0000009090919
aF1000.0000009090907
asS'ms_RXN_13720'
p43
(lp44
F-999.9999918912325
aF-4.544280086958086e-05
asS'ms_RXN_9648'
p45
(lp46
F-999.9992285742521
aF217.1547036041441
asS'bs_RXN_13712_44_DIMETHYL_824_CHOLESTADIENOL_NADPH_OXYGEN_MOLECULE_PROTON__CPD_4577_NADP_WATER_81_'
p47
(lp48
F-1000.0000009090909
aF1000.0000009090905
asS'bs_RXN_10857'
p49
(lp50
F-999.9999827283478
aF-9.085227540481938e-06
asS'bs_RXN_10856'
p51
(lp52
F-999.9999827306928
aF-9.086412812221866e-06
asS'bs_RXN_7002'
p53
(lp54
F-999.999928062491
aF999.9999918205855
asS'bs_GLYOXYLATE_REDUCTASE_NADP__RXN'
p55
(lp56
F-1000.000000909157
aF1000.0000046064812
asS'ms_RXN_9925'
p57
(lp58
F-999.999991818181
aF999.9999918181871
asS'ms_RXN_5482_CPD_12575_NADPH_PROTON__UDP_L_RHAMNOSE_NADP_WATER_50_'
p59
(lp60
F-1000.0000009090907
aF999.9999645539958
asS'ms_NITRATE_REDUCTASE_NADPORNOPH_RXN'
p61
(lp62
F-1000.0000009090905
aF1000.0000009090912
asS'ms_TSA_REDUCT_RXN_GLYCERATE_NADP__TARTRONATE_S_ALD_NADPH_PROTON_46_'
p63
(lp64
F-1000.000000909091
aF1000.0000009090909
asS'bs_RXN_13709_4_METHYL_824_CHOLESTADIENOL_NADPH_OXYGEN_MOLECULE_PROTON__CPD_4702_NADP_WATER_78_'
p65
(lp66
F-1000.0000009090918
aF1000.0000009090913
asS'bs_PYRIDOXINE_4_DEHYDROGENASE_RXN'
p67
(lp68
F-999.9999827253223
aF-1.8168951508959886e-05
asS'bs_ALDHDEHYDROG_RXN_CPD_7620_NAD_WATER__CPD_7619_NADH_PROTON_41_'
p69
(lp70
F-999.999991818183
aF999.9999918181813
asS'ms_RXN0_5182'
p71
(lp72
F-1.794976653614869e-08
aF-1.8181253201106705e-08
asS'ms_RXN0_5183'
p73
(lp74
F-3.3813100363997846e-14
aF-2.9865159774890416e-14
asS'ms_PHOSGLYPHOS_RXN'
p75
(lp76
F-999.9999827339419
aF1000.0000009091601
asS'ms_GLYOXII_RXN'
p77
(lp78
F-999.999982729287
aF-9.080908115750242e-06
asS'bs_EC_2_7_10_1'
p79
(lp80
F-1000.0000009090959
aF1000.0000009090899
asS'bs_EC_2_7_10_2'
p81
(lp82
F-1000.0000009090907
aF1000.0000009090896
asS'ms_RXN0_901'
p83
(lp84
F-999.9998653181298
aF1000.000000909158
asS'bs_TSA_REDUCT_RXN'
p85
(lp86
F-1000.0000009090908
aF1000.0000009090904
asS'bs_DIHYDROFOLATESYNTH_RXN'
p87
(lp88
F-5.321886988133863e-09
aF-5.808831765114055e-09
asS'ms_NITRATREDUCT_RXN'
p89
(lp90
F-1000.0000009090907
aF1000.0000009091698
asS'ms_PALMITOYL_COA_HYDROLASE_RXN'
p91
(lp92
F-1000.0000009152454
aF999.9999282102128
asS'ms_EC_5_1_3_15'
p93
(lp94
F-1000.0000009090908
aF1000.0000009090897
asS'bs_CARBONYL_REDUCTASE_NADPH_RXN'
p95
(lp96
F-1000.0000009090905
aF999.9999827339394
asS'ms_DCMP_DEAMINASE_RXN'
p97
(lp98
F-999.9998982221161
aF11.108632520256524
asS'bs_TSA_REDUCT_RXN_GLYCERATE_NADP__TARTRONATE_S_ALD_NADPH_PROTON_46_'
p99
(lp100
F-1000.0000009090911
aF1000.0000009090908
asS'ms_ESTRADIOL_17_BETA_DEHYDROGENASE_RXN'
p101
(lp102
F-1000.0000009090903
aF1000.0000009090907
asS'ms_SERINE__GLYOXYLATE_AMINOTRANSFERASE_RXN'
p103
(lp104
F-1000.0000009090919
aF1000.0000009090903
asS'bs__1_1_1_170_RXN_CPD_5846_NAD__NADH_CARBON_DIOXIDE_4_ALPHA_METHYL_5_ALPHA_CHOLEST_7_EN_3_ON_75_'
p105
(lp106
F-1000.0000009090917
aF1000.000000909117
asS'ms_RXN_13452_CPD_12575_CPD_14427__UDP_CPD_14434_PROTON_42_'
p107
(lp108
F-999.9999918181819
aF999.999991818182
asS'bs_RXN_11212'
p109
(lp110
F-1000.0000009090907
aF999.9999827458645
asS'ms_FAD_PYROPHOSPHATASE_RXN'
p111
(lp112
F9.085539265902642e-06
aF999.9999918207094
asS'bs_RXN_12127_CPD_12575_CHOLESTEROL__UDP_CPD_556_PROTON_42_'
p113
(lp114
F-999.9999918193344
aF999.9999918165913
asS'ms_RXN_2602'
p115
(lp116
F-999.9992453501477
aF999.9999736644581
asS'ms_RXN_3584'
p117
(lp118
F-999.9999918181404
aF999.9999918181517
asS'ms_RXN_3581'
p119
(lp120
F-999.9999918181817
aF999.9999918181815
asS'ms_EC_2_4_1_210'
p121
(lp122
F-999.9999918181809
aF999.9999918181871
asS'bs_RXN_13193_CPD1F_130_NADH_PROTON_OXYGEN_MOLECULE__CPD1F_133_NAD_WATER_59_'
p123
(lp124
F-1000.0000009090908
aF1000.0000009090916
asS'bs_RXN_13162_FARNESYL_PP_NADPH_PROTON__SQUALENE_NADP_PPI_44_'
p125
(lp126
F-1000.0000009090909
aF1000.0000009090915
asS'ms_RXN_13709_4_METHYL_824_CHOLESTADIENOL_NADPH_OXYGEN_MOLECULE_PROTON__CPD_4702_NADP_WATER_78_'
p127
(lp128
F-1000.0000009090918
aF1000.0000009090909
asS'ms_RXN_12994'
p129
(lp130
F-1000.0000009090916
aF1000.0000009090908
asS'ms_RXN_7022'
p131
(lp132
F-999.9999827344446
aF1000.0000009090905
asS'bs__1_2_1_27_RXN_CH3_MALONATE_S_ALD_CO_A_NAD_WATER__PROPIONYL_COA_HCO3_NADH_PROTON_66_'
p133
(lp134
F-1000.0000009090907
aF999.9999827427215
asS'bs_RXN_4761_CPD_12575_FORMONONETIN__ONONIN_UDP_PROTON_42_'
p135
(lp136
F-999.9999918181869
aF999.9999918181808
asS'bs__1TRANSKETO_RXN_chloroplast'
p137
(lp138
F7.746672976188048e-05
aF142.81220938894288
asS'bs_H2PTEROATESYNTH_RXN'
p139
(lp140
F-5.870658923581938e-09
aF-6.637913695241736e-09
asS'bs_RXN_8772_L_ARABITOL_NADP__CPD_12045_NADPH_PROTON_40_'
p141
(lp142
F-2.8273689181148807e-09
aF-2.7969563202569198e-09
asS'bs_RXN66_18'
p143
(lp144
F-1000.0000009091106
aF1000.0000009093601
asS'ms_FORMYLTHFDEFORMYL_RXN'
p145
(lp146
F-840.1842441443397
aF1000.0000009127597
asS'ms_RXN_8850'
p147
(lp148
F-999.9998974767652
aF11.108488520576998
asS'bs_SERINE__GLYOXYLATE_AMINOTRANSFERASE_RXN'
p149
(lp150
F-1000.0000009090892
aF1000.0000009090904
asS'ms_SUCROSE_SYNTHASE_RXN'
p151
(lp152
F-1000.0000009090911
aF1000.00000090909
asS'bs_MALONYL_COA_DECARBOXYLASE_RXN'
p153
(lp154
F-1000.0000009090442
aF999.999265563825
asS'bs_RXN_12091'
p155
(lp156
F-999.9999827272607
aF-2.7245140826089933e-05
asS'bs_IPPISOM_RXN'
p157
(lp158
F-93.74755437118438
aF37.49928322644981
asS'ms_NQOR_RXN_NADPH_CPD_9718_PROTON__CPD_12125_NADP_38_'
p159
(lp160
F-1000.0000009090909
aF1000.0000009090909
asS'bs_RXN_13708'
p161
(lp162
F-999.9999918181815
aF999.9999918181873
asS'bs_RXN_12090'
p163
(lp164
F2.7243380728315526e-05
aF999.999982725414
asS'ms_EC_2_3_1_91'
p165
(lp166
F-999.9999918220174
aF999.9999918142346
asS'bs_PREPHENATEDEHYDRAT_RXN'
p167
(lp168
F-999.9999307329529
aF999.9997880594016
asS'ms_RXN0_6427'
p169
(lp170
F-999.9999918181959
aF999.9999918181796
asS'ms_HYPOXANPRIBOSYLTRAN_RXN'
p171
(lp172
F-30.179912252732652
aF499.9995508877478
asS'bs_ALDHDEHYDROG_RXN_RETINAL_NAD_WATER__RETINOATE_NADH_PROTON_41_'
p173
(lp174
F-999.9999918181459
aF999.9999918182231
asS'ms_EC_5_1_2_3'
p175
(lp176
F-1000.0000009090915
aF1000.0000009090917
asS'ms_RXN1F_461_CPD_12575_CPD1F_90__CPD1F_453_UDP_PROTON_41_'
p177
(lp178
F-999.9999918213032
aF999.9999918240802
asS'bs_RXN_7022'
p179
(lp180
F-999.9999827317986
aF1000.0000009090904
asS'bs_PYRUVATEORTHOPHOSPHATE_DIKINASE_RXN_chloroplast'
p181
(lp182
F1.8171834346364397e-05
aF214.28533596336263
asS'bs_RXN_5285'
p183
(lp184
F-999.9996745609416
aF37.49937522757278
asS'bs_RXN_5286'
p185
(lp186
F-37.49931682749617
aF999.999668629407
asS'ms_RXN_7790'
p187
(lp188
F-1.4462851801485859e-08
aF-1.4055872080331773e-08
asS'bs_EC_2_7_1_105'
p189
(lp190
F-999.9999918181845
aF999.9999918181793
asS'bs_EC_5_1_3_15'
p191
(lp192
F-1000.0000009090918
aF1000.0000009090897
asS'bs_RXN_2205_2_OXO_5_METHYLTHIOPENTANOIC_ACID_MET__HOMOMETHIONINE_CPD_479_61_'
p193
(lp194
F-1000.0000009090903
aF1000.0000009090904
asS'ms_RXN_13711'
p195
(lp196
F-1000.0000009090907
aF1000.0000009090903
asS'ms_AMYLOMALT_RXN'
p197
(lp198
F-1.822098641602617e-08
aF-1.8083935881223317e-08
asS'bs_EC_3_1_3_46'
p199
(lp200
F-999.9999918181845
aF999.9999918181793
asS'ms_RXN_13717'
p201
(lp202
F6.365813415615436e-09
aF6.372900294982746e-09
asS'ms_RXN_13162_FARNESYL_PP_NADH_PROTON__SQUALENE_NAD_PPI_42_'
p203
(lp204
F-1000.0000009091111
aF1000.0000009090908
asS'bs__1_1_1_51_RXN_TESTOSTERONE_NADP__ANDROST4ENE_NADPH_PROTON_44_'
p205
(lp206
F-1000.0000009090907
aF1000.0000009091013
asS'ms_ALDEHYDE_OXIDASE_RXN_CPD_371_OXYGEN_MOLECULE_WATER__CPD_195_HYDROGEN_PEROXIDE_PROTON_64_'
p207
(lp208
F-999.9999918174574
aF999.999991819441
asS'bs_RXN_8471_CPD_12575_CPD_8662__CPD_8663_UDP_33_'
p209
(lp210
F-999.9999918181809
aF999.999991818182
asS'ms_RXN_13482'
p211
(lp212
F-999.9999100416356
aF1000.000000909091
asS'ms_RXN_7622_P_HYDROXY_PHENYLPYRUVATE_NADH_PROTON__CPD_2222_NAD_51_'
p213
(lp214
F-1000.0000009090909
aF1000.0000009090903
asS'ms_ESTRADIOL_17_BETA_DEHYDROGENASE_RXN_NAD_CPD_352__NADH_ESTRONE_PROTON_33_'
p215
(lp216
F-1000.0000009090992
aF1000.0000009090915
asS'ms_ASPAMINOTRANS_RXN'
p217
(lp218
F-1000.0000009090919
aF1000.0000009090894
asS'ms_RXN_7772'
p219
(lp220
F9.080906745101209e-06
aF999.999706329088
asS'bs_ALCOHOL_DEHYDROG_GENERIC_RXN_CPD_13229_NAD__CPD_13228_NADH_PROTON_37_'
p221
(lp222
F9.0809075137639e-06
aF999.9999918181809
asS'ms_ALDHDEHYDROG_RXN_METHYL_GLYOXAL_NAD_WATER__PYRUVATE_NADH_PROTON_47_'
p223
(lp224
F-999.9999827346267
aF1000.0000009090905
asS'bs_RXN_1863'
p225
(lp226
F-999.99999181614
aF999.9999918203247
asS'ms_RXN_13290'
p227
(lp228
F9.080989833255048e-06
aF999.9999918182135
asS'ms_RXN_4319'
p229
(lp230
F-999.9999918181869
aF999.9999918181809
asS'ms_RXN_8772'
p231
(lp232
F-2.735856717952695e-09
aF-2.6424584541290345e-09
asS'ms_EC_2_6_1_13'
p233
(lp234
F-1000.0000009090905
aF1000.0000009090905
asS'bs_EC_4_2_1_55'
p235
(lp236
F-1000.0000009090846
aF1000.0000009090912
asS'ms_HYDROXYPYRUVATE_REDUCTASE_RXN'
p237
(lp238
F-1000.0000009090911
aF1000.0000009090907
asS'bs_RXN_12510'
p239
(lp240
F1.2535716205474571e-09
aF1.4071380184876165e-09
asS'ms_RXN_8289_CPD_12575_CPD1F_453__CPD_8067_UDP_PROTON_41_'
p241
(lp242
F-1000.000000909091
aF1000.0000009090907
asS'bs_RXN_7790'
p243
(lp244
F-1.4104068056777678e-08
aF-1.757307933821408e-08
asS'ms_RXN_9601'
p245
(lp246
F-999.9999282493716
aF191.64284936174028
asS'ms_PEPDEPHOS_RXN'
p247
(lp248
F-1000.0000009100286
aF1000.0000009090919
asS'ms_TRYPSYN_RXN'
p249
(lp250
F-999.999918739923
aF83.33067080986068
asS'ms_RXN1F_462'
p251
(lp252
F-999.9999918197627
aF999.9999918168129
asS'ms_RXN1F_461'
p253
(lp254
F-999.9999918213387
aF999.9999918150179
asS'bs_RXN_9015'
p255
(lp256
F-999.999991822293
aF-9.087756325251562e-06
asS'ms_RXN_9191'
p257
(lp258
F-999.9999918181875
aF999.999991818159
asS'ms_RXN_7622_P_HYDROXY_PHENYLPYRUVATE_NADPH_PROTON__CPD_2222_NADP_53_'
p259
(lp260
F-1000.000000909094
aF1000.0000009090908
asS'ms_RXN_1841'
p261
(lp262
F-1000.0000009090904
aF1000.0000009090901
asS'ms_ORNITHINE__OXO_ACID_AMINOTRANSFERASE_RXN_L_ORNITHINE_PYRUVATE__L_ALPHA_ALANINE_L_GLUTAMATE_GAMMA_SEMIALDEHYDE_69_'
p263
(lp264
F-1000.0000009090905
aF1000.0000009090692
asS'bs_DEOXYCYTIDINE_KINASE_RXN_DEOXYCYTIDINE_TTP__DCMP_TDP_PROTON_35_'
p265
(lp266
F-1000.0000009090901
aF999.9998565506521
asS'bs_SPONTPRO_RXN'
p267
(lp268
F-1000.0000009086353
aF1000.0000009090897
asS'bs_RXN_9549'
p269
(lp270
F9.132612595018613e-05
aF229.29714950788087
asS'ms_RXN_13398'
p271
(lp272
F5.4556174389374344e-05
aF270.83097465539646
asS'bs_EC_1_6_99_5'
p273
(lp274
F-1000.0000009090908
aF1000.0000009090904
asS'bs_RXN1F_461'
p275
(lp276
F-999.9999918210925
aF999.9999918149052
asS'ms_DEOXYCYTIDINE_KINASE_RXN_DEOXYCYTIDINE_CTP__DCMP_CDP_PROTON_35_'
p277
(lp278
F-1000.0000009090911
aF1000.0000009102137
asS'ms_RXN_12303'
p279
(lp280
F-499.9995933467013
aF-9.070899068122163e-06
asS'bs_RXN_13452'
p281
(lp282
F-999.9999918181786
aF999.9999918181451
asS'ms_RXN_13710_CPD_4184_NADPH_OXYGEN_MOLECULE_PROTON__CPD_8619_NADP_WATER_59_'
p283
(lp284
F-1000.0000009090907
aF1000.0000009090909
asS'bs_NITRATE_REDUCTASE_NADPORNOPH_RXN'
p285
(lp286
F-1000.0000009090911
aF1000.0000009090912
asS'ms_RXN_9772'
p287
(lp288
F-999.9999918248136
aF-9.086272581792411e-06
asS'bs_RXN_11632_L_DELTA1_PYRROLINE_5_CARBOXYLATE_NADP_WATER__GLT_NADPH_PROTON_62_'
p289
(lp290
F-1000.0000009090908
aF1000.0000009090908
asS'ms_STEROL_GLUCOSYLTRANSFERASE_RXN_CPD_12575_CPD_13080__UDP_CPD_13081_PROTON_42_'
p291
(lp292
F-1000.0000009090907
aF1000.0000009090916
asS'ms_RXN_9673'
p293
(lp294
F-1000.0000009090452
aF1000.0000009090899
asS'bs_ADPREDUCT_RXN'
p295
(lp296
F-11.108507066060342
aF33.330734298130885
asS'ms_ALCOHOL_DEHYDROG_GENERIC_RXN_CPD_13229_NAD__CPD_13228_NADH_PROTON_37_'
p297
(lp298
F9.080909042557769e-06
aF999.9999918181809
asS'bs_RXN_13720'
p299
(lp300
F-999.9999918178594
aF-4.5453182392322586e-05
asS'ms_RXN_8092'
p301
(lp302
F-999.9999827339403
aF999.9998774040982
asS'ms_RXN_8094'
p303
(lp304
F-999.9999918180977
aF999.9999918181861
asS'bs_RXNQT_4345'
p305
(lp306
F-1000.0000009090918
aF1000.0000009090905
asS'ms_GLUC1PURIDYLTRANS_RXN_GLC_1_P_UTP_PROTON__CPD_12575_PPI_34_'
p307
(lp308
F-1000.0000009090909
aF1000.0000009090903
asS'bs_RXN0_901'
p309
(lp310
F-999.9998652676092
aF1000.000000909089
asS'ms_SPONTPRO_RXN'
p311
(lp312
F-1000.0000010320547
aF1000.0000009090897
asS'bs_ORNITHINE__OXO_ACID_AMINOTRANSFERASE_RXN_L_ORNITHINE_CPD_479__MET_L_GLUTAMATE_GAMMA_SEMIALDEHYDE_56_'
p313
(lp314
F-1000.0000009090911
aF1000.0000009090903
asS'bs_RXN_2102'
p315
(lp316
F9.080907958009085e-06
aF999.9999918181818
asS'bs_DGDPKIN_RXN'
p317
(lp318
F8.532627369977589e-05
aF11.108553055750802
asS'bs_RXN_10768'
p319
(lp320
F-999.9999918181892
aF999.9999372996307
asS'ms_RXNQT_4345_CPDQT_27_GLT__CPDQT_340_2_KETOGLUTARATE_40_'
p321
(lp322
F-1000.0000009090908
aF1000.0000009090907
asS'bs_RXN_12242_CPD_7526_CPD_9718__CPD_7496_CPD_12125_38_'
p323
(lp324
F-1000.0000009090897
aF1000.0000009090901
asS'bs_POLYAMINE_OXIDASE_RXN'
p325
(lp326
F-999.9999827292721
aF-2.7247084149889864e-05
asS'ms_RXN_3584_CPD_12575_DAIDZEIN__CPD_3424_UDP_PROTON_40_'
p327
(lp328
F-999.999991818187
aF999.9999918181356
asS'bs_RXN_8088'
p329
(lp330
F-999.9999918181821
aF999.9999918181816
asS'ms_RXN_8001'
p331
(lp332
F0.00010454170885797523
aF55.55295153302229
asS'ms_LEGHEMOGLOBIN_REDUCTASE_RXN_NADPH_CPD_10494__NADP_CPD_10495_PROTON_39_'
p333
(lp334
F-1000.000000909103
aF1000.0000009090916
asS'ms_ORNITHINE_GLU_AMINOTRANSFORASE_RXN'
p335
(lp336
F-1000.0000009090907
aF1000.0000009090999
asS'bs__2PGADEHYDRAT_RXN'
p337
(lp338
F-999.9999918181751
aF999.9999918181818
asS'ms_ASPARAGINE__TRNA_LIGASE_RXN'
p339
(lp340
F-999.9999918184868
aF999.9999918181798
asS'bs_R222_RXN'
p341
(lp342
F-999.9999918174169
aF999.9999918226379
asS'ms_RXN_12002'
p343
(lp344
F-999.9997673281557
aF1000.0000009091127
asS'bs_RXN1F_461_CPD_12575_CPD1F_90__CPD1F_453_UDP_PROTON_41_'
p345
(lp346
F-999.999991821346
aF999.9999918151898
asS'bs_NQOR_RXN_NADH_UBIQUINONE_8_PROTON__CPD_9956_NAD_39_'
p347
(lp348
F-1000.000000909093
aF1000.0000009090913
asS'bs_RXN_13717'
p349
(lp350
F6.467716342519828e-09
aF7.264055082404698e-09
asS'bs_PYRUVATE_DECARBOXYLASE_RXN_GLYOX_PROTON__CARBON_DIOXIDE_FORMALDEHYDE_42_'
p351
(lp352
F4.5415175554608975e-05
aF912.4412217238148
asS'ms_RXN_9550'
p353
(lp354
F1.817465370268311e-05
aF10.980970082566795
asS'bs_DEOXYCYTIDINE_KINASE_RXN_DEOXYCYTIDINE_GTP__DCMP_GDP_PROTON_35_'
p355
(lp356
F-1000.00000090909
aF1000.0000009090904
asS'ms_GDPREDUCT_RXN'
p357
(lp358
F-11.108566648824924
aF-8.551038100385196e-05
asS'bs_RXN_1382'
p359
(lp360
F-101.91194720716332
aF99.0258144570681
asS'ms_RXN66_18_CPD_8613_NADP__CPD_8614_NADPH_CARBON_DIOXIDE_45_'
p361
(lp362
F-1000.0000009090916
aF1000.0000009090911
asS'bs_TRYPSYN_RXN'
p363
(lp364
F-999.999919698763
aF83.33066857510535
asS'ms_HYDROXYPYRUVATE_REDUCTASE_RXN_GLYCERATE_NADP__OH_PYR_NADPH_PROTON_36_'
p365
(lp366
F-1000.0000009090905
aF1000.0000009090907
asS'bs_RXN_10745_NADPH_PROTON_OXYGEN_MOLECULE__NADP_HYDROGEN_PEROXIDE_53_'
p367
(lp368
F-1000.0000009090911
aF1000.0000009090907
asS'bs_RXN_12086'
p369
(lp370
F9.080899608260743e-06
aF999.9999645580701
asS'ms_DEOXYCYTIDINE_KINASE_RXN_DEOXYCYTIDINE_DCTP__DCMP_DCDP_PROTON_37_'
p371
(lp372
F-1000.0000009090888
aF1000.0000009090919
asS'bs_RXN_12084'
p373
(lp374
F-1000.0000009090908
aF1000.0000009090909
asS'bs_PHOSPHATIDYLINOSITOL_3_PHOSPHATASE_RXN'
p375
(lp376
F9.08090022259814e-06
aF999.9999918181785
asS'ms_EC_1_14_99_36'
p377
(lp378
F9.76549008031505e-11
aF9.453894849858568e-11
asS'ms__1_1_1_51_RXN_TESTOSTERONE_NAD__ANDROST4ENE_NADH_PROTON_42_'
p379
(lp380
F-1000.0000009090917
aF1000.0000009090907
asS'bs_RXN_12123_CPD_12575_CPD_13080__UDP_CPD_13081_PROTON_42_'
p381
(lp382
F-1000.0000009090907
aF1000.0000009091101
asS'bs_PHOSGLYPHOS_RXN'
p383
(lp384
F-999.9999827332256
aF1000.0000009090893
asS'bs_GUANOSINEKIN_RXN'
p385
(lp386
F-30.18001343995153
aF999.9999461151262
asS'ms_RXN_11052'
p387
(lp388
F2.7273571128765484e-05
aF999.9999736445473
asS'bs_DEOXYCYTIDINE_KINASE_RXN'
p389
(lp390
F-1000.0000009091101
aF-1.8161841224155213e-05
asS'bs_SUCROSE_SYNTHASE_RXN_CPD_12575_BETA_D_FRUCTOSE__SUCROSE_UDP_PROTON_46_'
p391
(lp392
F-1000.0000009090911
aF1000.00000090909
asS'bs_RXN_2205'
p393
(lp394
F-1000.0000009090903
aF1000.0000009090913
asS'ms_TRANSENOYLCOARED_RXN_BUTYRYL_COA_NADP__CROTONYL_COA_NADPH_PROTON_44_'
p395
(lp396
F-999.9999918375106
aF-9.081203787791522e-06
asS'ms_RXN1F_66'
p397
(lp398
F-1000.0000009090562
aF1000.0000009088384
asS'ms_RXN_11632'
p399
(lp400
F-1000.0000009090911
aF1000.0000009090903
asS'bs_ALDHDEHYDROG_RXN_METHYL_GLYOXAL_NAD_WATER__PYRUVATE_NADH_PROTON_47_'
p401
(lp402
F-999.9999827335754
aF1000.0000009090907
asS'ms_GUANYL_KIN_RXN'
p403
(lp404
F0.00010901101553995819
aF1000.0000009392531
asS'bs_RXN_9648'
p405
(lp406
F-999.9992279318111
aF229.29328657241638
asS'ms_NADH_DEHYDROGENASE_RXN'
p407
(lp408
F-1000.0000009090583
aF1000.000000909091
asS'bs_GLUC1PURIDYLTRANS_RXN_GLC_1_P_UTP_PROTON__CPD_12575_PPI_34_'
p409
(lp410
F-1000.0000009090917
aF1000.0000009092103
asS'bs_RXN_13398'
p411
(lp412
F5.455627126508221e-05
aF270.8308513478383
asS'bs_RXN_4702'
p413
(lp414
F-999.9999918181875
aF999.999991818187
asS'bs_RXN1F_462'
p415
(lp416
F-999.9999918197666
aF999.9999918166076
asS'ms_R223_RXN'
p417
(lp418
F1.8164763136623702e-05
aF1000.0000009092959
asS'ms_GTPPYPHOSKIN_RXN'
p419
(lp420
F-999.9999918181758
aF999.9999918181798
asS'bs__1_1_1_51_RXN_TESTOSTERONE_NAD__ANDROST4ENE_NADH_PROTON_42_'
p421
(lp422
F-1000.0000009090917
aF1000.0000009090908
asS'bs_RXN_13711_CPD_8610_NADH_OXYGEN_MOLECULE_PROTON__CPD_8613_NAD_WATER_57_'
p423
(lp424
F-1000.0000009090905
aF1000.0000009091015
asS'bs_EC_1_5_99_12'
p425
(lp426
F2.489242728081395e-08
aF2.4596346361221606e-08
asS'bs_RXN_10745_NADH_PROTON_OXYGEN_MOLECULE__NAD_HYDROGEN_PEROXIDE_51_'
p427
(lp428
F-1000.000000909091
aF1000.0000009092056
asS'ms_PHOSPHATIDYLINOSITOL_BISPHOSPHATASE_RXN'
p429
(lp430
F-1000.000000909191
aF999.9999736513702
asS'bs_RXN_4801'
p431
(lp432
F-999.9999736399164
aF999.9999736406318
asS'bs_EC_3_6_5_5'
p433
(lp434
F-1000.0000009090913
aF1000.0000009090897
asS'ms_RXN_13430'
p435
(lp436
F9.08080093266374e-06
aF999.9999918184492
asS'ms_METBALT_RXN'
p437
(lp438
F-166.66407788680345
aF111.1085370121175
asS'ms_RIB5PISOM_RXN_chloroplast'
p439
(lp440
F8.182028180911123e-05
aF101.49415323688159
asS'bs_RXN_4802'
p441
(lp442
F-999.9999736401396
aF999.9999736363642
asS'bs_EC_3_6_5_2'
p443
(lp444
F-1000.0000009090928
aF1000.0000009090899
asS'bs_RXN_9651'
p445
(lp446
F-999.9992277433713
aF229.30402933973934
asS'bs_PGLUCISOM_RXN'
p447
(lp448
F-1000.0000009100335
aF1000.0000009206789
asS'ms_F16ALDOLASE_RXN'
p449
(lp450
F-999.9999737644919
aF1000.0000009090904
asS'ms_RXN_13193'
p451
(lp452
F-1000.0000009090907
aF1000.000000909128
asS'ms_RXN_13190'
p453
(lp454
F-3.578575604135624e-09
aF-1.1022631138489202e-08
asS'ms_RXN_13191'
p455
(lp456
F0.00030426528271225526
aF37.49937330315484
asS'ms_RXN_13197'
p457
(lp458
F-1000.0000009090893
aF999.9998826022621
asS'ms_RXN_4804'
p459
(lp460
F-999.9999736363648
aF999.9999736363643
asS'ms_GLYC3PDEHYDROG_RXN'
p461
(lp462
F-203.60558472458393
aF1000.0000009090909
asS'ms_ALDOSE_1_EPIMERASE_RXN'
p463
(lp464
F-999.9999554972779
aF1000.0000009090899
asS'bs_HYDROXYPYRUVATE_REDUCTASE_RXN'
p465
(lp466
F-1000.0000009090905
aF1000.0000009090907
asS'ms__1_1_1_170_RXN_CPD_5846_NAD__NADH_CARBON_DIOXIDE_4_ALPHA_METHYL_5_ALPHA_CHOLEST_7_EN_3_ON_75_'
p467
(lp468
F-1000.0000009090909
aF1000.0000009090915
asS'ms_EC_3_1_3_67'
p469
(lp470
F9.080907818661091e-06
aF999.9999918181795
asS'ms_RXN_13710_CPD_4184_NADH_OXYGEN_MOLECULE_PROTON__CPD_8619_NAD_WATER_57_'
p471
(lp472
F-1000.0000009091505
aF1000.0000009090918
asS'ms_EC_3_1_3_62'
p473
(lp474
F-1000.0000009090907
aF999.9999645641338
asS'ms_RXN_1841_1_KESTOTRIOSE_WATER__BETA_D_FRUCTOSE_SUCROSE_45_'
p475
(lp476
F-1000.0000009090908
aF1000.0000009090903
asS'bs_RXN_8409'
p477
(lp478
F-999.9999918181899
aF999.9999372960874
asS'bs_RXN_1841'
p479
(lp480
F-1000.0000009090904
aF1000.0000009090901
asS'ms_RXN_13162'
p481
(lp482
F-1000.0000009090907
aF1000.0000009090916
asS'ms_ALDEHYDE_OXIDASE_RXN_CPD_8693_OXYGEN_MOLECULE_WATER__5Z8Z11Z14Z17Z_EICOSAPENTAENOATE_HYDROGEN_PEROXIDE_PROTON_89_'
p483
(lp484
F-999.9999918181604
aF999.9999918182116
asS'bs_RXN_3584_CPD_12575_DAIDZEIN__CPD_3424_UDP_PROTON_40_'
p485
(lp486
F-999.9999918181526
aF999.9999918181808
asS'bs_NQOR_RXN_NADH_CPD_9731_PROTON__CPD_12117_NAD_36_'
p487
(lp488
F-1000.0000009090909
aF1000.0000009090907
asS'ms_PYRIDOXKIN_RXN'
p489
(lp490
F-1000.0000009090911
aF999.9999736475363
asS'bs_RXN_7622_P_HYDROXY_PHENYLPYRUVATE_NADH_PROTON__CPD_2222_NAD_51_'
p491
(lp492
F-1000.0000009090911
aF1000.0000009090908
asS'bs_FORMYLTHFDEFORMYL_RXN'
p493
(lp494
F-840.8414668875309
aF1000.0000009128908
asS'bs_NQOR_RXN_NADPH_CPD_9718_PROTON__CPD_12125_NADP_38_'
p495
(lp496
F-1000.0000009090909
aF1000.0000009090915
asS'ms_TRIOSEPISOMERIZATION_RXN_chloroplast'
p497
(lp498
F-1000.000000919698
aF999.9998827428312
asS'bs_RXN_12125_CPD_12575_CPD_4161__UDP_CPD_13084_PROTON_41_'
p499
(lp500
F-999.9999918203896
aF999.9999918161155
asS'ms_RXN_13717_NARINGENIN_CMPD_NADPH_OXYGEN_MOLECULE_PROTON__CPD_7214_NADP_WATER_66_'
p501
(lp502
F6.955727128733717e-09
aF7.152170620991834e-09
asS'bs_RXN_13717_NARINGENIN_CMPD_NADPH_OXYGEN_MOLECULE_PROTON__CPD_7214_NADP_WATER_66_'
p503
(lp504
F8.286202294451711e-09
aF7.1525133242034205e-09
asS'bs_RXN_13193_CPD1F_130_NADPH_PROTON_OXYGEN_MOLECULE__CPD1F_133_NADP_WATER_61_'
p505
(lp506
F-1000.0000009090918
aF1000.0000009090913
asS'bs_RXN_12123'
p507
(lp508
F-1000.0000009090908
aF1000.0000009090916
asS'bs_RXN_8289'
p509
(lp510
F-1000.0000009090917
aF1000.0000009090915
asS'bs_FAD_PYROPHOSPHATASE_RXN'
p511
(lp512
F9.085081118109947e-06
aF999.9999918207457
asS'bs_GTPPYPHOSKIN_RXN'
p513
(lp514
F-999.9999918181987
aF999.99999181818
asS'bs_RXN_7774'
p515
(lp516
F-1000.0000009090912
aF299.99927279289363
asS'bs_RXN_7022_CPD_12575_CPD_6366__CPD_6562_UDP_33_'
p517
(lp518
F-999.9999827319789
aF1000.0000009093704
asS'bs_RXN_1863_CPD_2281_WATER__BETA_D_FRUCTOSE_6G_KESTOTETRAOSE_49_'
p519
(lp520
F-999.9999918161743
aF999.9999918202582
asS'ms_RXN_10715'
p521
(lp522
F-999.9999918212221
aF-9.08699788978464e-06
asS'ms_DEOXYCYTIDINE_KINASE_RXN_DEOXYCYTIDINE_DATP__DCMP_DADP_PROTON_37_'
p523
(lp524
F-1000.0000009094837
aF1000.0000009621903
asS'bs_ALDEHYDE_OXIDASE_RXN_2_TRANS6_TRANS_FARNESAL_OXYGEN_MOLECULE_WATER__CPD_12585_HYDROGEN_PEROXIDE_PROTON_82_'
p525
(lp526
F-999.9999918160946
aF999.9999918202319
asS'bs_RXN_12126_CPD_12575_CPD_4162__UDP_CPD_11606_PROTON_41_'
p527
(lp528
F-999.9999918236738
aF999.9999918160522
asS'bs_ASPAMINOTRANS_RXN'
p529
(lp530
F-1000.0000009090913
aF1000.0000009090897
asS'bs_ORNCARBAMTRANSFER_RXN'
p531
(lp532
F-999.9999000603145
aF1000.0000009090909
asS'bs_RXN_13482'
p533
(lp534
F-999.9998995935388
aF1000.0000009090902
asS'ms_RXN_1863_CPD_2281_WATER__BETA_D_FRUCTOSE_6G_KESTOTETRAOSE_49_'
p535
(lp536
F-999.9999918160644
aF999.9999918203082
asS'ms_PGLUCISOM_RXN'
p537
(lp538
F-1000.0000009090879
aF999.9995337347484
asS'ms_RXN_8289'
p539
(lp540
F-1000.0000009090909
aF1000.0000009091146
asS'bs_SINAPATE_1_GLUCOSYLTRANSFERASE_RXN_CPD_12575_SINAPATE__1_O_SINAPOYL_BETA_D_GLUCOSE_UDP_52_'
p541
(lp542
F-1000.0000009090903
aF1000.0000009090901
asS'ms_RXN_4761_CPD_12575_FORMONONETIN__ONONIN_UDP_PROTON_42_'
p543
(lp544
F-999.999991818187
aF999.9999918181819
asS'bs_RXN_4319'
p545
(lp546
F-999.9999918181816
aF999.9999918181546
asS'bs_RXN_12128'
p547
(lp548
F-999.9999918147711
aF999.9999918216045
asS'bs_RXNQT_4150'
p549
(lp550
F-1000.0000009090901
aF1000.0000009090896
asS'bs_RXNQT_4345_CPDQT_27_L_ALPHA_ALANINE__CPDQT_340_PYRUVATE_45_'
p551
(lp552
F-1000.000000909092
aF1000.000000909091
asS'ms_RXN_3443'
p553
(lp554
F-1000.000000909013
aF1000.00000090909
asS'ms_NITRATE_REDUCTASE_NADPH_RXN'
p555
(lp556
F-1000.0000009090911
aF1000.0000009090637
asS'bs_PEPDEPHOS_RXN'
p557
(lp558
F-1000.0000009228638
aF1000.0000009090911
asS'bs_RIB5PISOM_RXN'
p559
(lp560
F-652.6483861255509
aF-0.0009723283366524513
asS'bs_RXN_13681'
p561
(lp562
F-999.9999918181445
aF999.9999918182211
asS'ms_RXN_10941'
p563
(lp564
F-999.9999918181844
aF999.9999918181793
asS'ms_RXN_10942'
p565
(lp566
F-999.9999554939567
aF1000.0000009090815
asS'ms_RXN_10943'
p567
(lp568
F-999.9999827339409
aF999.9999463836307
asS'ms_RXN_10944'
p569
(lp570
F-1000.0000009090795
aF999.9998282318198
asS'ms_RXN_10947'
p571
(lp572
F9.080908634657628e-06
aF999.9999918183505
asS'ms_RXNQT_4345_CPDQT_27_GLY__CPDQT_340_GLYOX_30_'
p573
(lp574
F-1000.0000009090905
aF1000.0000009090909
asS'bs_GDPKIN_RXN'
p575
(lp576
F-1000.0000009090916
aF1000.0000009090899
asS'bs_RXN_2205_2_OXO_5_METHYLTHIOPENTANOIC_ACID_GLT__HOMOMETHIONINE_2_KETOGLUTARATE_69_'
p577
(lp578
F-1000.0000009090917
aF1000.0000009090907
asS'bs_RXN3O_130'
p579
(lp580
F4.211116324522479e-09
aF-1.7534432563529546e-10
asS'ms_RXN_2901'
p581
(lp582
F9.067986012220612e-06
aF999.9999918121498
asS'bs__2_4_1_239_RXN_CPD_12575_CPD1F_453__UDP_CPD_8067_PROTON_41_'
p583
(lp584
F-1000.0000009090915
aF1000.0000009090908
asS'bs_RXN_12128_CPD_12575_CPD_4143__UDP_CPD_11608_PROTON_41_'
p585
(lp586
F-999.9999918149609
aF999.9999918215892
asS'bs_RXN_13709_4_METHYL_824_CHOLESTADIENOL_NADH_OXYGEN_MOLECULE_PROTON__CPD_4702_NAD_WATER_76_'
p587
(lp588
F-1000.0000009090908
aF1000.000000909091
asS'bs_GDPREDUCT_RXN'
p589
(lp590
F-11.108493613313291
aF-8.179271833289107e-05
asS'bs_RXN_10862'
p591
(lp592
F-1000.0000009090904
aF1000.0000009090908
asS'bs_PALMITOYL_COA_HYDROLASE_RXN'
p593
(lp594
F-1000.0000009090651
aF999.9999282094187
asS'ms_RXN_4761'
p595
(lp596
F-999.9999918181876
aF999.9999918181809
asS'bs_SULFATE_ADENYLYLTRANSFERASE_ADP_RXN'
p597
(lp598
F-1000.00000090909
aF1000.0000009090905
asS'ms_APYRASE_RXN'
p599
(lp600
F-1000.000000909095
aF1000.0000009091361
asS'ms_PHOSPHATIDYLINOSITOL_3_PHOSPHATASE_RXN'
p601
(lp602
F9.08090857112433e-06
aF999.9999918181795
asS'ms_SINAPATE_1_GLUCOSYLTRANSFERASE_RXN_CPD_12575_SINAPATE__1_O_SINAPOYL_BETA_D_GLUCOSE_UDP_52_'
p603
(lp604
F-1000.0000009093113
aF1000.00000090909
asS'ms_RXN_12460'
p605
(lp606
F-999.9999918181994
aF999.9999918189881
asS'ms_RXN_12128_CPD_12575_CPD_4143__UDP_CPD_11608_PROTON_41_'
p607
(lp608
F-999.9999918147035
aF999.9999918216262
asS'ms_RXN_11667'
p609
(lp610
F-1000.0000009090911
aF1000.0000009090904
asS'ms_RXN_11662'
p611
(lp612
F-999.999991818492
aF999.999991817875
asS'ms_RXN_4201_CPD_12575_CPD_3402__CPD_4122_UDP_PROTON_40_'
p613
(lp614
F-999.9999918181524
aF999.9999918181815
asS'ms_RXN_10768'
p615
(lp616
F-999.9999918181804
aF999.999937293795
asS'bs_RXN_13712_44_DIMETHYL_824_CHOLESTADIENOL_NADH_OXYGEN_MOLECULE_PROTON__CPD_4577_NAD_WATER_79_'
p617
(lp618
F-1000.0000009090911
aF1000.0000009090909
asS'ms_RXN66_26'
p619
(lp620
F-1000.0000009090895
aF1000.0000009090916
asS'ms_GUANOSINEKIN_RXN'
p621
(lp622
F-30.180007869239095
aF999.9999463910844
asS'ms_RXN66_23'
p623
(lp624
F-1000.0000009090916
aF1000.0000009090907
asS'bs_RXN_13711_CPD_8610_NADPH_OXYGEN_MOLECULE_PROTON__CPD_8613_NADP_WATER_59_'
p625
(lp626
F-1000.0000009090912
aF1000.0000009091408
asS'ms_R222_RXN'
p627
(lp628
F-999.99999181744
aF999.9999918189343
asS'ms_RXN_10767'
p629
(lp630
F-999.9999918181807
aF999.999937307298
asS'bs_RXN_2961'
p631
(lp632
F-840.8415212155637
aF-3.633770663144833e-05
asS'bs_RXN_13185'
p633
(lp634
F-499.9999868242924
aF499.99984250225464
asS'bs_RXN_13187'
p635
(lp636
F2.8974691328040707e-12
aF6.618393286822417e-13
asS'ms_RXN_13711_CPD_8610_NADH_OXYGEN_MOLECULE_PROTON__CPD_8613_NAD_WATER_57_'
p637
(lp638
F-1000.0000009090911
aF1000.0000009090788
asS'bs_RXN_11847'
p639
(lp640
F-999.9999918181807
aF999.9999918181807
asS'bs_RXN_13189'
p641
(lp642
F-2.362751785956214e-08
aF-2.363111306344848e-08
asS'ms_RXNQT_4345'
p643
(lp644
F-1000.0000009090911
aF1000.0000009090905
asS'ms_RXN_8471_CPD_12575_CPD_8662__CPD_8663_UDP_33_'
p645
(lp646
F-999.9999918181819
aF999.9999918181404
asS'bs_PHOSPHATIDYLINOSITOL_BISPHOSPHATASE_RXN'
p647
(lp648
F-1000.0000009090903
aF999.9999736513699
asS'bs_RXN_9601'
p649
(lp650
F-999.999928167736
aF202.31897089706817
asS'ms_GDPKIN_RXN'
p651
(lp652
F-1000.0000009090916
aF1000.0000009090897
asS'bs_EC_2_1_1_100'
p653
(lp654
F-999.9999918181807
aF999.9999372960874
asS'bs_EC_3_1_3_77'
p655
(lp656
F2.5371044470342887e-08
aF2.1154180922961427e-08
asS'ms_RXN_13709'
p657
(lp658
F-1000.0000009090907
aF1000.0000009090915
asS'ms_RXN_13708'
p659
(lp660
F-999.9999918181816
aF999.9999918181873
asS'bs_RXN_6222_BETA_D_FRUCTOSE_CPD_12575__UDP_SUCROSE_PROTON_46_'
p661
(lp662
F-1000.0000009090923
aF1000.00000090909
asS'ms_XANTHINE_OXIDASE_RXN'
p663
(lp664
F-999.9998652665998
aF1000.0000009090887
asS'bs_EC_1_14_13_68'
p665
(lp666
F2.8487983876317108e-12
aF1.0380101824729722e-12
asS'ms_RXN_11847'
p667
(lp668
F-999.9999918181237
aF999.9999918181815
asS'bs_SINAPINE_ESTERASE_RXN'
p669
(lp670
F-999.999991814005
aF999.999991822203
asS'ms_RXN_12300'
p671
(lp672
F-999.9999918181821
aF-9.080909076208965e-06
asS'ms_RXN_8473_CPD_12575_CPD_8663__CPD_8667_UDP_33_'
p673
(lp674
F-999.9999918181809
aF999.9999918181817
asS'bs_RXN_8475_CPD_12575_CPD_8664__CPD_8665_UDP_33_'
p675
(lp676
F-999.999991818187
aF999.9999918181809
asS'bs_STEROL_GLUCOSYLTRANSFERASE_RXN_CPD_12575_CPD_8610__UDP_CPD_11608_PROTON_41_'
p677
(lp678
F-4.924493555000332e-09
aF-5.136612154123102e-09
asS'ms_RIBULP3EPIM_RXN_chloroplast'
p679
(lp680
F-202.98832476801795
aF-8.176896593432782e-05
asS'ms_GAPOXNPHOSPHN_RXN'
p681
(lp682
F-999.9999827343837
aF1000.000000909091
asS'bs_RXN_11632'
p683
(lp684
F-1000.0000009090907
aF1000.0000009092815
asS'bs_RXN_13709'
p685
(lp686
F-1000.0000009090907
aF1000.0000009090916
asS'ms_UDPGLUCEPIM_RXN_mod'
p687
(lp688
F-1000.0000009090908
aF-0.00025368518968555114
asS'bs_RXN_9614'
p689
(lp690
F9.08908210931977e-06
aF999.9999918238875
asS'bs_F16ALDOLASE_RXN_chloroplast'
p691
(lp692
F-142.80809200738025
aF-7.738399885566581e-05
asS'ms_ALDEHYDE_OXIDASE_RXN_2_TRANS6_TRANS_FARNESAL_OXYGEN_MOLECULE_WATER__CPD_12585_HYDROGEN_PEROXIDE_PROTON_82_'
p693
(lp694
F-999.9999918161036
aF999.9999918202285
asS'ms_EC_3_6_5_5'
p695
(lp696
F-1000.0000009090916
aF1000.0000009090899
asS'ms_RXN_10625'
p697
(lp698
F-37.49929876324339
aF1000.0000009090905
asS'ms_RXN_7022_CPD_12575_CPD_6366__CPD_6562_UDP_33_'
p699
(lp700
F-999.999982731979
aF1000.000000909091
asS'ms_RXN_13452'
p701
(lp702
F-999.9999918181882
aF999.9999918181809
asS'bs_LEGHEMOGLOBIN_REDUCTASE_RXN_NADPH_CPD_10494__NADP_CPD_10495_PROTON_39_'
p703
(lp704
F-1000.0000009090908
aF1000.0000009090907
asS'bs_RXN1F_66'
p705
(lp706
F-1000.0000009174436
aF1000.000000908837
asS'ms_NQOR_RXN_NADPH_UBIQUINONE_8_PROTON__CPD_9956_NADP_41_'
p707
(lp708
F-1000.0000009090918
aF1000.0000009090905
asS'bs_RXN_6222_BETA_D_FRUCTOSE_DTDP_D_GLUCOSE__TDP_SUCROSE_PROTON_51_'
p709
(lp710
F9.080908711089043e-06
aF999.9999918181802
asS'ms_LINOLEOYL_RXN'
p711
(lp712
F-1000.000000909091
aF1000.0000009201146
asS'ms_TRIOSEPISOMERIZATION_RXN'
p713
(lp714
F-1000.0000009090886
aF1000.0000009092396
asS'bs_EC_1_14_19_2'
p715
(lp716
F0.0003098035485815491
aF202.3165120222328
asS'bs_TRIOSEPISOMERIZATION_RXN_chloroplast'
p717
(lp718
F-1000.0000009199821
aF999.9998866139889
asS'bs_RXN0_6427'
p719
(lp720
F-999.9999918181811
aF999.9999918181798
asS'bs_EC_3_1_3_74'
p721
(lp722
F-999.9999736463456
aF1000.0000009091082
asS'bs_LINOLEOYL_RXN'
p723
(lp724
F-1000.0000009089529
aF1000.0000009204938
asS'bs_EC_5_1_2_3'
p725
(lp726
F-1000.0000009090915
aF1000.0000009090908
asS'bs_RXN_8001'
p727
(lp728
F0.00010453725573345918
aF55.55293990131763
asS'bs_RXN0_5183'
p729
(lp730
F-2.9710239505589886e-14
aF-2.993240921457738e-14
asS'bs_MAL_DEH_GLYOX_RXN'
p731
(lp732
F-1000.0000009090907
aF1000.0000009090928
asS'ms_RXN_2205_2_OXO_5_METHYLTHIOPENTANOIC_ACID_GLT__HOMOMETHIONINE_2_KETOGLUTARATE_69_'
p733
(lp734
F-1000.0000009090909
aF1000.0000009090915
asS'bs_RXN1F_462_CPD_12575_CPD_520__UDP_CPD1F_437_PROTON_40_'
p735
(lp736
F-999.9999918197595
aF999.9999918166026
asS'bs_RXN_7002_RIBOSE_1_ARSENATE_CPD_296_PROTON__CPD0_1108_CPD_763_LIPOIC_ACID_64_'
p737
(lp738
F-999.9999918341916
aF999.9999282360692
asS'bs_RXN_12448'
p739
(lp740
F-1000.0000009090907
aF999.9999827339391
asS'ms_RXN_5482'
p741
(lp742
F-1000.0000009090908
aF999.9999645655731
asS'bs_RXN_3581_CPD_12575_CPD_3141__CPD_3421_UDP_33_'
p743
(lp744
F-999.9999918181809
aF999.9999918181875
asS'ms_EC_2_7_1_105'
p745
(lp746
F-999.9999918181754
aF999.9999918181793
asS'ms_EC_1_5_99_12'
p747
(lp748
F2.3615210488793548e-08
aF2.495720662674035e-08
asS'ms_RXN_9666'
p749
(lp750
F-191.64291322632698
aF999.9999464370532
asS'ms_RXN_9667'
p751
(lp752
F3.636228842974934e-05
aF191.6428965117839
asS'bs_RXN_10814'
p753
(lp754
F-999.9997880593863
aF999.9999357145741
asS'ms_EC_4_2_1_55'
p755
(lp756
F-1000.0000009090908
aF1000.0000009090907
asS'ms_RXN_6222_BETA_D_FRUCTOSE_DTDP_D_GLUCOSE__TDP_SUCROSE_PROTON_51_'
p757
(lp758
F9.080906659576166e-06
aF999.9999918181805
asS'bs_GDPPYPHOSKIN_RXN'
p759
(lp760
F-999.9999918181809
aF999.9999918181803
asS'bs_RXN_13334'
p761
(lp762
F-999.9999736438581
aF999.9998824863516
asS'bs_RXN_12002'
p763
(lp764
F-999.9997644516799
aF1000.0000009094323
asS'ms_RXN_10862'
p765
(lp766
F-1000.0000009092045
aF1000.0000009090912
asS'bs_RXN_7772'
p767
(lp768
F9.080908784731673e-06
aF999.9996990214077
asS'ms_EC_2_7_10_1'
p769
(lp770
F-1000.000000909091
aF1000.0000009090896
asS'bs_RXN_12994'
p771
(lp772
F-1000.0000009090908
aF1000.0000009090908
asS'bs_RXN_8289_CPD_12575_CPD1F_453__CPD_8067_UDP_PROTON_41_'
p773
(lp774
F-1000.0000009093352
aF1000.0000009090902
asS'ms_PYRIDOXINE_4_DEHYDROGENASE_RXN'
p775
(lp776
F-999.9999827253118
aF-1.8197401505254837e-05
asS'bs_TRIOSEPISOMERIZATION_RXN'
p777
(lp778
F-1000.0000009090902
aF1000.0000009090902
asS'ms_RXN_9015'
p779
(lp780
F-999.9999918222934
aF-9.087489958118446e-06
asS'ms_RXN3O_130'
p781
(lp782
F4.211187006433428e-09
aF1.7882732194942816e-09
asS'ms_EC_2_7_10_2'
p783
(lp784
F-1000.0000009090936
aF1000.0000009090897
asS'ms_RXN_10745_NADPH_PROTON_OXYGEN_MOLECULE__NADP_HYDROGEN_PEROXIDE_53_'
p785
(lp786
F-1000.0000009093603
aF1000.000000909091
asS'bs_EC_3_1_3_62'
p787
(lp788
F-1000.0000009090905
aF999.9999645614487
asS'ms_DEOXYCYTIDINE_KINASE_RXN_DEOXYCYTIDINE_UTP__DCMP_UDP_PROTON_35_'
p789
(lp790
F-1000.000000909255
aF1000.0000009090902
asS'bs_RXN_11667'
p791
(lp792
F-1000.0000009090911
aF1000.0000009090904
asS'bs_RXN0_5462'
p793
(lp794
F-1000.0000009090936
aF1000.0000009093958
asS'bs_GLYOXII_RXN'
p795
(lp796
F-999.9999827270179
aF-9.080906714556912e-06
asS'bs_RXN_10941'
p797
(lp798
F-999.9999918175891
aF999.99999181825
asS'bs_RXN_10943'
p799
(lp800
F-999.9999827339408
aF999.9999463836026
asS'bs_RXN_10942'
p801
(lp802
F-999.9999554767733
aF1000.0000009115664
asS'bs_RXN_10944'
p803
(lp804
F-1000.0000009090794
aF999.9998282436072
asS'ms_ALANINE_AMINOTRANSFERASE_RXN'
p805
(lp806
F-1000.0000009090917
aF1000.0000009090907
asS'ms__1TRANSKETO_RXN_chloroplast'
p807
(lp808
F8.178040469100385e-05
aF101.49415323689126
asS'ms_NQOR_RXN_NADPH_CPD_9731_PROTON__CPD_12117_NADP_38_'
p809
(lp810
F-1000.0000009090849
aF1000.0000009090915
asS'ms_RXN_12994_CPD_14422_NADPH_PROTON__CPD_14419_NADP_39_'
p811
(lp812
F-1000.0000009090907
aF1000.0000009090907
asS'ms_MALATE_DEH_RXN'
p813
(lp814
F-1000.0000009090892
aF1000.0000009090908
asS'bs_RXN_3581'
p815
(lp816
F-999.9999918181809
aF999.999991818187
asS'bs_ADENYLYLSULFATASE_RXN'
p817
(lp818
F-1000.0000009090905
aF1000.0000009090902
asS'bs_RXN_11662'
p819
(lp820
F-999.9999918186494
aF999.9999918178381
asS'bs_SUGAR_TERMINAL_PHOSPHATASE_RXN'
p821
(lp822
F-1000.0000009091757
aF1000.0000009093582
asS'bs_RXN_2205_2_OXO_5_METHYLTHIOPENTANOIC_ACID_GLY__HOMOMETHIONINE_GLYOX_59_'
p823
(lp824
F-1000.0000009090905
aF1000.0000009090908
asS'bs_RXN_9624'
p825
(lp826
F9.080590685540927e-06
aF999.9999918173619
asS'bs_GLUC1PURIDYLTRANS_RXN'
p827
(lp828
F-1000.0000009090908
aF1000.0000009090903
asS'ms_LEGHEMOGLOBIN_REDUCTASE_RXN'
p829
(lp830
F-1000.0000009090908
aF1000.000000909091
asS'bs_RXN_9191'
p831
(lp832
F-999.9999918181807
aF999.9999918181807
asS'bs_MALATE_DEH_RXN_peroxisome'
p833
(lp834
F1.8171859931708997e-05
aF999.9999100046438
asS'ms_ALDEHYDE_OXIDASE_RXN'
p835
(lp836
F-999.9999918181711
aF999.999991818185
asS'bs_RXN_8475'
p837
(lp838
F-999.9999918181816
aF999.9999918181809
asS'bs_RXN_10947'
p839
(lp840
F9.080908612054127e-06
aF999.9999918187513
asS'bs_RXN_8471'
p841
(lp842
F-999.9999918181808
aF999.9999918181809
asS'bs_RXN_8473'
p843
(lp844
F-999.9999918182567
aF999.999991818187
asS'ms_NQOR_RXN_NADH_CPD_9731_PROTON__CPD_12117_NAD_36_'
p845
(lp846
F-1000.0000009090941
aF1000.0000009090907
asS'bs_RXN_13188_44_DIMETHYL_5ALPHA_CHOLEST_7_EN_3BET_NADH_OXYGEN_MOLECULE_PROTON__CPD_5846_NAD_WATER_85_'
p847
(lp848
F-1000.0000009090907
aF1000.0000009090907
asS'bs_DEOXYCYTIDINE_KINASE_RXN_DEOXYCYTIDINE_DCTP__DCMP_DCDP_PROTON_37_'
p849
(lp850
F-1000.0000009090891
aF1000.0000009090954
asS'ms__1_1_1_170_RXN_CPD_5846_NADP__NADPH_CARBON_DIOXIDE_4_ALPHA_METHYL_5_ALPHA_CHOLEST_7_EN_3_ON_77_'
p851
(lp852
F-1000.0000009091116
aF1000.0000009090917
asS'bs_GLUTAMINE__TRNA_LIGASE_RXN'
p853
(lp854
F-999.999982727247
aF-1.817181771047847e-05
asS'bs_EC_2_4_1_210'
p855
(lp856
F-999.9999918181838
aF999.9999918186525
asS'ms_PHOSGLYPHOS_RXN_chloroplast'
p857
(lp858
F1.8171724613023907e-05
aF249.9997249321005
asS'ms_GLUC1PURIDYLTRANS_RXN'
p859
(lp860
F-1000.0000009090917
aF1000.0000009090903
asS'ms_RXN_12510'
p861
(lp862
F1.2677528349065544e-09
aF1.411401683656982e-09
asS'bs_RXN_10767'
p863
(lp864
F-999.9999918181849
aF999.9999372998025
asS'ms_TRANSENOYLCOARED_RXN_CPD_196_NADP__CPD0_2108_NADPH_PROTON_37_'
p865
(lp866
F-999.9999918188006
aF999.9999918196797
asS'ms_DIHYDROFOLATESYNTH_RXN'
p867
(lp868
F-5.12055054676351e-09
aF-5.165915608501556e-09
asS'bs_UDPGLUCEPIM_RXN_mod'
p869
(lp870
F-1000.0000009090912
aF-0.00025107579784620134
asS'ms_EC_1_1_1_51'
p871
(lp872
F-1000.000000909091
aF1000.0000009090908
asS'bs_CDPKIN_RXN'
p873
(lp874
F-1000.0000009101205
aF1000.0000009090912
asS'bs_RXN_4804'
p875
(lp876
F-999.9999736363643
aF999.9999736403981
asS'bs_RXN_9654'
p877
(lp878
F-999.9992284568011
aF229.3040283484811
asS'bs_RXN_9652'
p879
(lp880
F-999.9992276777944
aF229.26347655644392
asS'bs_RXN_9653'
p881
(lp882
F-999.9992277321584
aF229.27459917629622
asS'bs_RXN_9650'
p883
(lp884
F-999.9992277453471
aF229.3040368845647
asS'bs_RXN_4803'
p885
(lp886
F-999.9999736363643
aF999.9999736363654
asS'ms_RXN_10745_NADH_PROTON_OXYGEN_MOLECULE__NAD_HYDROGEN_PEROXIDE_51_'
p887
(lp888
F-1000.0000009090909
aF1000.000000909091
asS'ms_RXNQT_4150'
p889
(lp890
F-1000.0000009090902
aF1000.0000009090896
asS'ms_RXN1F_462_CPD_12575_CPD_520__UDP_CPD1F_437_PROTON_40_'
p891
(lp892
F-999.999991819709
aF999.9999918165576
asS'bs_BRANCHED_CHAINAMINOTRANSFERVAL_RXN'
p893
(lp894
F-166.66401618764317
aF-2.839374488407991e-05
asS'ms_RXN_8475_CPD_12575_CPD_8664__CPD_8665_UDP_33_'
p895
(lp896
F-999.9999918202833
aF999.9999918181809
asS'bs_GLYOHMETRANS_RXN'
p897
(lp898
F-775.2479619489364
aF1000.0000004606632
asS'ms_O_SUCCHOMOSERLYASE_RXN'
p899
(lp900
F-166.6640760106461
aF111.1085371121635
asS'bs_XANTHINE_OXIDASE_RXN'
p901
(lp902
F-999.9998653094221
aF1000.0000009090887
asS'bs_EC_2_7_7_1'
p903
(lp904
F-999.9994270040595
aF999.9999185415373
asS'ms_RXN66_18_CPD_8613_NAD__CPD_8614_NADH_CARBON_DIOXIDE_43_'
p905
(lp906
F-1000.0000009090907
aF1000.0000009090907
asS'ms_RXN_7381'
p907
(lp908
F-999.9999918270058
aF-9.097872920026354e-06
asS'ms_EC_2_4_1_218'
p909
(lp910
F-999.999991818179
aF999.9999918181809
asS'ms_RXN_12127'
p911
(lp912
F-999.9999918197472
aF999.9999918165108
asS'ms_RXN_2205_2_OXO_5_METHYLTHIOPENTANOIC_ACID_GLY__HOMOMETHIONINE_GLYOX_59_'
p913
(lp914
F-1000.0000009090908
aF1000.0000009090911
asS'ms_EC_1_1_1_170'
p915
(lp916
F-1000.0000009090907
aF1000.0000009090908
asS'bs_ALDHDEHYDROG_RXN_CPD_8693_NAD_WATER__5Z8Z11Z14Z17Z_EICOSAPENTAENOATE_NADH_PROTON_64_'
p917
(lp918
F-999.9999918181617
aF999.999991818148
asS'bs_RXN_13158'
p919
(lp920
F3.7095989201520294e-05
aF166.664023896297
asS'bs_RXN_7913'
p921
(lp922
F-1000.0000010911427
aF1000.0000009090882
asS'ms_PYRUVATE_DECARBOXYLASE_RXN'
p923
(lp924
F-5.4538991759393e-14
aF1.0118407348245084e-14
asS'bs_O_SUCCHOMOSERLYASE_RXN'
p925
(lp926
F-166.66407652461515
aF111.10853604401396
asS'bs_ORNITHINE__OXO_ACID_AMINOTRANSFERASE_RXN_L_ORNITHINE_PYRUVATE__L_ALPHA_ALANINE_L_GLUTAMATE_GAMMA_SEMIALDEHYDE_69_'
p927
(lp928
F-1000.0000009090921
aF1000.0000009090908
asS'ms_SUGAR_TERMINAL_PHOSPHATASE_RXN'
p929
(lp930
F-1000.0000009091235
aF1000.0000009090897
asS'ms_GLYOHMETRANS_RXN'
p931
(lp932
F-775.2459746088647
aF1000.0000009090253
asS'ms_RXN0_5289'
p933
(lp934
F-1000.0000009090911
aF1000.000000909091
asS'ms_DEOXYCYTIDINE_KINASE_RXN_DEOXYCYTIDINE_GTP__DCMP_GDP_PROTON_35_'
p935
(lp936
F-1000.00000090909
aF1000.0000009090912
asS'ms_EC_3_1_3_74'
p937
(lp938
F-999.9999736481791
aF1000.0000009094892
asS'ms_EC_3_1_3_77'
p939
(lp940
F2.5278153198075183e-08
aF3.0571516330274487e-08
asS'bs_O_SUCCINYLBENZOATE_COA_LIG_RXN'
p941
(lp942
F-999.9999918201454
aF-9.084374148239297e-06
asS'bs_TRANSENOYLCOARED_RXN_BUTYRYL_COA_NADP__CROTONYL_COA_NADPH_PROTON_44_'
p943
(lp944
F-999.9999918182343
aF-9.081065963137408e-06
asS'bs_STEROL_GLUCOSYLTRANSFERASE_RXN_CPD_12575_CPD_13080__UDP_CPD_13081_PROTON_42_'
p945
(lp946
F-1000.0000009090916
aF1000.0000009090908
asS'bs_RXN_7186'
p947
(lp948
F-999.9999918181842
aF999.9999918181793
asS'bs_RXN_9623'
p949
(lp950
F-999.9999277632307
aF1000.0000009156373
asS'bs_RIBULP3EPIM_RXN_chloroplast'
p951
(lp952
F-285.6290686665265
aF-7.70344010798897e-05
asS'bs_RXN_7622'
p953
(lp954
F-1000.0000009090531
aF1000.0000009090908
asS'bs_RXN_9626'
p955
(lp956
F9.080829396003199e-06
aF999.9999918181443
asS'bs_RXN0_5305'
p957
(lp958
F-999.999928029252
aF1000.0000009229067
asS'ms_PYRUVATEORTHOPHOSPHATE_DIKINASE_RXN_chloroplast'
p959
(lp960
F1.8172864330462076e-05
aF214.28532035837497
asS'ms_RXN_9624'
p961
(lp962
F9.080442434309771e-06
aF999.9999918180746
asS'bs_ORNITHINE__OXO_ACID_AMINOTRANSFERASE_RXN_L_ORNITHINE_GLYOX__GLY_L_GLUTAMATE_GAMMA_SEMIALDEHYDE_54_'
p963
(lp964
F-1000.0000009090911
aF1000.000000909091
asS'ms_RXN_9626'
p965
(lp966
F9.080760809627964e-06
aF999.9999918181546
asS'bs_CERAMIDE_GLUCOSYLTRANSFERASE_RXN'
p967
(lp968
F9.052897120825948e-06
aF999.9999827385816
asS'ms_RXN_9623'
p969
(lp970
F-999.9999277927286
aF1000.0000009156657
asS'bs_EC_2_4_1_218'
p971
(lp972
F-999.9999918181808
aF999.999991818179
asS'ms__1TRANSKETO_RXN'
p973
(lp974
F-637.1518787689249
aF37.834760073948935
asS'bs_RXN0_5289'
p975
(lp976
F-1000.0000009090908
aF1000.0000009090908
asS'bs_LANOSTEROL_SYNTHASE_RXN'
p977
(lp978
F1.780395659374158e-09
aF1.7797679186138705e-09
asS'bs_RXN_13712'
p979
(lp980
F-1000.0000009090916
aF1000.0000009090907
asS'ms_IPPISOM_RXN'
p981
(lp982
F-93.74757314474071
aF37.499216202898424
asS'ms_RXN_12123_CPD_12575_CPD_13080__UDP_CPD_13081_PROTON_42_'
p983
(lp984
F-1000.0000009090908
aF1000.0000009090908
asS'bs_ALCOHOL_DEHYDROG_RXN'
p985
(lp986
F9.080908535723638e-06
aF999.9999918181848
asS'bs_ALANINE_AMINOTRANSFERASE_RXN'
p987
(lp988
F-1000.0000009090909
aF1000.0000009090913
asS'ms_PSEUDOURIDYLATE_SYNTHASE_RXN'
p989
(lp990
F9.080908935409673e-06
aF999.9999918181818
asS'ms_POLYAMINE_OXIDASE_RXN'
p991
(lp992
F-999.999982729118
aF-2.7246516485034408e-05
asS'bs_NITRATREDUCT_RXN'
p993
(lp994
F-1000.0000009090911
aF1000.0000009090908
asS'bs_RXN_13162'
p995
(lp996
F-1000.0000009090916
aF1000.0000009091098
asS'bs_RXN_12490'
p997
(lp998
F-6.721219982140628e-09
aF-6.961481764291565e-09
asS'bs_NITRATE_REDUCTASE_NADPH_RXN'
p999
(lp1000
F-1000.0000009090904
aF1000.0000009090908
asS'ms_RXN_13189'
p1001
(lp1002
F-2.4257154600393887e-08
aF-2.1854363264928558e-08
asS'ms_RXN_13188'
p1003
(lp1004
F-1000.0000009090917
aF1000.0000009090915
asS'ms_RXN_13188_44_DIMETHYL_5ALPHA_CHOLEST_7_EN_3BET_NADH_OXYGEN_MOLECULE_PROTON__CPD_5846_NAD_WATER_85_'
p1005
(lp1006
F-1000.0000009090907
aF1000.0000009090909
asS'ms_RXN_13185'
p1007
(lp1008
F-499.9999868243869
aF499.9998505106433
asS'ms_RXN_13187'
p1009
(lp1010
F2.5746324817589414e-13
aF-1.2957275158811476e-11
asS'bs_RXN_13188_44_DIMETHYL_5ALPHA_CHOLEST_7_EN_3BET_NADPH_OXYGEN_MOLECULE_PROTON__CPD_5846_NADP_WATER_87_'
p1011
(lp1012
F-1000.0000009090996
aF1000.0000009090905
asS'ms_RIB5PISOM_RXN'
p1013
(lp1014
F-652.5487847120194
aF-0.0009724540301849474
asS'ms_BRANCHED_CHAINAMINOTRANSFERVAL_RXN'
p1015
(lp1016
F-166.6640139578293
aF-3.936367566856336e-05
asS'bs_EC_1_1_1_51'
p1017
(lp1018
F-1000.0000009090908
aF1000.0000009090907
asS'ms_RXN_4702'
p1019
(lp1020
F-999.9999918181386
aF999.9999918181816
asS'ms_RXN_7002_RIBOSE_1_ARSENATE_CPD_296_PROTON__CPD0_1108_CPD_763_LIPOIC_ACID_64_'
p1021
(lp1022
F-999.9999918338474
aF999.9999282362295
asS'ms_RXN_11186'
p1023
(lp1024
F-999.9998653086861
aF499.9996326217727
asS'ms_RXN66_18'
p1025
(lp1026
F-1000.0000009090916
aF1000.0000009090907
asS'bs__3PGAREARR_RXN'
p1027
(lp1028
F-999.9999918208014
aF999.9999918181825
asS'bs_NQOR_RXN_NADPH_CPD_9731_PROTON__CPD_12117_NADP_38_'
p1029
(lp1030
F-1000.0000009090755
aF1000.0000009090907
asS'bs_RXNQT_4366'
p1031
(lp1032
F9.08091855210039e-06
aF999.9999918181818
asS'bs_RXN_9925'
p1033
(lp1034
F-999.9999918181788
aF999.9999918181808
asS'ms_RXN_2205_2_OXO_5_METHYLTHIOPENTANOIC_ACID_MET__HOMOMETHIONINE_CPD_479_61_'
p1035
(lp1036
F-1000.0000009090908
aF1000.0000009090908
asS'ms_LANOSTEROL_SYNTHASE_RXN'
p1037
(lp1038
F1.779693698544642e-09
aF1.7791860240253735e-09
asS'bs_RXN_6222_BETA_D_FRUCTOSE_GDP_D_GLUCOSE__GDP_SUCROSE_PROTON_50_'
p1039
(lp1040
F9.080909166880806e-06
aF999.9999918181836
asS'ms_RXN_10814'
p1041
(lp1042
F-999.9997829096931
aF999.9999358757584
asS'ms_F16ALDOLASE_RXN_chloroplast'
p1043
(lp1044
F-101.49415323688852
aF-8.175602872414578e-05
asS'ms_GLUCOSYLCERAMIDASE_RXN'
p1045
(lp1046
F9.087050677842337e-06
aF999.9999827272686
asS'ms__2TRANSKETO_RXN_chloroplast'
p1047
(lp1048
F-101.49415343117599
aF-8.177922268381922e-05
asS'ms_TSA_REDUCT_RXN'
p1049
(lp1050
F-1000.0000009090907
aF1000.0000009090916
asS'ms_RXN_8473'
p1051
(lp1052
F-999.9999918181771
aF999.9999918181456
asS'ms_RXN_8471'
p1053
(lp1054
F-999.9999918181809
aF999.9999918181809
asS'ms_RXN_7002'
p1055
(lp1056
F-999.9999280585644
aF999.9999918334574
asS'bs_PYRUVATE_DECARBOXYLASE_RXN'
p1057
(lp1058
F5.077418032695306e-14
aF-4.644594923070338e-13
asS'bs_EC_3_2_1_26'
p1059
(lp1060
F-999.9999736556291
aF1000.0000009090875
asS'bs_PYRIDOXKIN_RXN'
p1061
(lp1062
F-1000.0000009090911
aF999.9999736541278
asS'bs_RXN66_18_CPD_8613_NADP__CPD_8614_NADPH_CARBON_DIOXIDE_45_'
p1063
(lp1064
F-1000.0000009090908
aF1000.0000009090903
asS'ms_RXN0_5305'
p1065
(lp1066
F-999.9999282434668
aF1000.000000923792
asS'ms_RXN_12125_CPD_12575_CPD_4161__UDP_CPD_13084_PROTON_41_'
p1067
(lp1068
F-999.9999918202656
aF999.9999918159842
asS'ms_DEOXYCYTIDINE_KINASE_RXN_DEOXYCYTIDINE_DUTP__DCMP_DUDP_PROTON_37_'
p1069
(lp1070
F-1000.000000909089
aF999.9999645697301
asS'ms_NQOR_RXN_NADH_UBIQUINONE_8_PROTON__CPD_9956_NAD_39_'
p1071
(lp1072
F-1000.0000009090908
aF1000.0000009090925
asS'ms_RXN_3541'
p1073
(lp1074
F-749.9999802337497
aF999.9999736441038
asS'ms_PROTEIN_TYROSINE_PHOSPHATASE_RXN'
p1075
(lp1076
F-1000.0000009090917
aF1000.000000909113
asS'ms_RXN_7186'
p1077
(lp1078
F-999.9999918181912
aF999.9999918181793
asS'bs_PROTEIN_TYROSINE_PHOSPHATASE_RXN'
p1079
(lp1080
F-1000.0000009090949
aF1000.000000909126
asS'bs_APYRASE_RXN'
p1081
(lp1082
F-1000.0000009090921
aF1000.0000009091129
asS'bs_ALDHDEHYDROG_RXN'
p1083
(lp1084
F-999.9999918181861
aF999.9999918181819
asS'ms_RXN_13193_CPD1F_130_NADH_PROTON_OXYGEN_MOLECULE__CPD1F_133_NAD_WATER_59_'
p1085
(lp1086
F-1000.000000909091
aF1000.0000009090911
asS'ms_RXN_11473'
p1087
(lp1088
F7.188934242272094e-09
aF1.147151689289269e-08
asS'bs_RXN_13197'
p1089
(lp1090
F-1000.0000009090907
aF999.9998827811727
asS'bs__1_1_1_170_RXN_CPD_5846_NADP__NADPH_CARBON_DIOXIDE_4_ALPHA_METHYL_5_ALPHA_CHOLEST_7_EN_3_ON_77_'
p1091
(lp1092
F-1000.0000009090908
aF1000.0000009090917
asS'bs_RXN0_1483'
p1093
(lp1094
F-499.99997773227363
aF499.9999777354316
asS'bs_RXN_13193'
p1095
(lp1096
F-1000.0000009090907
aF1000.0000009090907
asS'bs_PPGPPSYN_RXN'
p1097
(lp1098
F-999.9999918181811
aF999.9999918181798
asS'bs_RXN_13191'
p1099
(lp1100
F0.0003061330527432144
aF37.49966609032122
asS'bs_RXN_13190'
p1101
(lp1102
F-8.604454054820599e-09
aF-1.087485268859091e-08
asS'ms__2TRANSKETO_RXN'
p1103
(lp1104
F-696.830583862101
aF333.3323772349641
asS'ms_RXN_1863'
p1105
(lp1106
F-999.9999918161119
aF999.9999918201913
asS'ms_TRANSENOYLCOARED_RXN_CPD_10267_NADP__T2_DECENOYL_COA_NADPH_PROTON_45_'
p1107
(lp1108
F-999.9999918141841
aF-9.086411748249104e-06
asS'bs_RXNQT_4345_CPDQT_27_GLY__CPDQT_340_GLYOX_30_'
p1109
(lp1110
F-1000.0000009090905
aF1000.0000009090908
asS'ms_RXN_7913'
p1111
(lp1112
F-1000.000001091557
aF1000.0000009090885
asS'bs_RXN_13290'
p1113
(lp1114
F9.081234096686565e-06
aF999.9999918195936
asS'ms_RXN_13711_CPD_8610_NADPH_OXYGEN_MOLECULE_PROTON__CPD_8613_NADP_WATER_59_'
p1115
(lp1116
F-1000.0000009090918
aF1000.0000009090913
asS'ms_RXN_13162_FARNESYL_PP_NADPH_PROTON__SQUALENE_NADP_PPI_44_'
p1117
(lp1118
F-1000.0000009090908
aF1000.0000009090908
asS'bs_RXN_7381'
p1119
(lp1120
F-999.9999918269756
aF-9.097503732619647e-06
asS'bs_TREHALA_RXN'
p1121
(lp1122
F2.724220203575192e-05
aF999.9999918197453
asS'bs_F16ALDOLASE_RXN'
p1123
(lp1124
F-999.9999737702908
aF1000.0000009090903
asS'ms_SINAPATE_1_GLUCOSYLTRANSFERASE_RXN'
p1125
(lp1126
F-1000.0000009090911
aF1000.0000009090901
asS'ms_ALDHDEHYDROG_RXN_RETINAL_NAD_WATER__RETINOATE_NADH_PROTON_41_'
p1127
(lp1128
F-999.9999918181403
aF999.9999918182218
asS'bs_BRANCHED_CHAINAMINOTRANSFERLEU_RXN'
p1129
(lp1130
F-166.6640194516213
aF-3.633411674316831e-05
asS'ms_EC_2_1_1_100'
p1131
(lp1132
F-999.9999918181824
aF999.9999372959275
asS'ms_BENZALDEHYDE_DEHYDROGENASE_NAD__RXN'
p1133
(lp1134
F-999.9999918181817
aF999.9999918181081
asS'bs_BENZALDEHYDE_DEHYDROGENASE_NAD__RXN'
p1135
(lp1136
F-999.9999918181861
aF999.9999918180999
asS'ms_SERINE__PYRUVATE_AMINOTRANSFERASE_RXN'
p1137
(lp1138
F-1000.0000009091199
aF1000.0000009090902
asS'ms_STEROL_GLUCOSYLTRANSFERASE_RXN'
p1139
(lp1140
F-8.985983295571323e-09
aF-8.860180707625526e-09
asS'ms_RXN_12090'
p1141
(lp1142
F2.724307333622601e-05
aF999.9999827253863
asS'ms_RXN_12091'
p1143
(lp1144
F-999.9999827272726
aF-2.7244681067999962e-05
asS'bs_RXN_9667'
p1145
(lp1146
F3.6356114285735906e-05
aF202.29784252706096
asS'bs_RXN_9666'
p1147
(lp1148
F-202.3267281231863
aF999.999946406652
asS'ms_RXN_3581_CPD_12575_CPD_3141__CPD_3421_UDP_33_'
p1149
(lp1150
F-999.9999918181818
aF999.9999918181809
asS'bs_RXN_13711'
p1151
(lp1152
F-1000.0000009090916
aF1000.0000009090907
asS'bs_HYPOXANPRIBOSYLTRAN_RXN'
p1153
(lp1154
F-30.17991384469324
aF499.9995519565869
asS'ms_BRANCHED_CHAINAMINOTRANSFERLEU_RXN'
p1155
(lp1156
F-166.66402717641154
aF-4.673685020450003e-05
asS'bs_MALATE_DEH_RXN'
p1157
(lp1158
F-1000.00000090909
aF1000.0000009090908
asS'ms_DGDPKIN_RXN'
p1159
(lp1160
F8.532729830222803e-05
aF11.108565189898282
asS'bs_PHOSPHOGLUCMUT_RXN'
p1161
(lp1162
F-1000.0000009090899
aF1000.0000009090899
asS'bs_SUCC_FUM_OXRED_RXN'
p1163
(lp1164
F-1000.00000090909
aF299.9993718811473
asS'ms_SULFATE_ADENYLYLTRANSFERASE_ADP_RXN'
p1165
(lp1166
F-1000.00000090909
aF1000.0000009090907
asS'ms_RXN_9290_CPD_9905_NADP__CPD_7092_NADPH_PROTON_37_'
p1167
(lp1168
F-1000.0000009091137
aF1000.0000009090909
asS'bs_RXN_2901'
p1169
(lp1170
F9.069611221538976e-06
aF999.9999918134708
asS'bs_DEOXYCYTIDINE_KINASE_RXN_DEOXYCYTIDINE_UTP__DCMP_UDP_PROTON_35_'
p1171
(lp1172
F-1000.0000009090902
aF1000.0000009090904
asS'ms_CDPKIN_RXN'
p1173
(lp1174
F-1000.0000009102788
aF1000.0000009090904
asS'ms_FPPSYN_RXN'
p1175
(lp1176
F0.00030716049986177774
aF37.499669148351465
asS'bs_RXN66_26_5_ALPHA_CHOLESTA_724_DIEN_3_BETA_OL_NADH_OXYGEN_MOLECULE_PROTON__CPD_8646_NAD_WATER_84_'
p1177
(lp1178
F-1000.0000009090915
aF1000.0000009090911
asS'bs_DCMP_DEAMINASE_RXN'
p1179
(lp1180
F-999.9998978851197
aF11.108431467160942
asS'ms_RXN_9614'
p1181
(lp1182
F9.08936298716224e-06
aF999.9999918226301
asS'bs_RXN_12125'
p1183
(lp1184
F-999.9999918203134
aF999.9999918159867
asS'bs_RXN_12127'
p1185
(lp1186
F-999.9999918195062
aF999.999991816648
asS'bs_RXN_12126'
p1187
(lp1188
F-999.9999918203168
aF999.9999918160364
asS'bs_PHOSGLYPHOS_RXN_chloroplast'
p1189
(lp1190
F1.8171766511238893e-05
aF249.99972496591448
asS'ms__2PGADEHYDRAT_RXN'
p1191
(lp1192
F-999.9999918195768
aF999.999991818182
asS'bs_DEOXYCYTIDINE_KINASE_RXN_DEOXYCYTIDINE_DATP__DCMP_DADP_PROTON_37_'
p1193
(lp1194
F-1000.000000909167
aF1000.0000009088757
asS'ms_ALDEHYDE_OXIDASE_RXN_METHYL_GLYOXAL_OXYGEN_MOLECULE_WATER__PYRUVATE_HYDROGEN_PEROXIDE_PROTON_72_'
p1195
(lp1196
F-999.9999827334387
aF1000.000000909091
asS'bs_RXN0_5182'
p1197
(lp1198
F-1.8181364732840154e-08
aF-1.822087474483182e-08
asS'bs_EC_2_3_1_91'
p1199
(lp1200
F-999.9999918223057
aF999.9999918140597
asS'bs_RXN_13430'
p1201
(lp1202
F9.080801013887355e-06
aF999.9999918181315
asS'bs_EC_1_14_99_36'
p1203
(lp1204
F6.101484084442777e-10
aF8.852501272577293e-11
asS'ms_RXN_12994_CPD_14422_NADH_PROTON__CPD_14419_NAD_37_'
p1205
(lp1206
F-1000.0000009090908
aF1000.0000009090994
asS'ms_CARBONYL_REDUCTASE_NADPH_RXN'
p1207
(lp1208
F-1000.0000009090915
aF999.9999827339376
asS'bs_RXN_11052'
p1209
(lp1210
F2.7273550331747653e-05
aF999.9999736474814
asS'ms_ASNSYNB_RXN'
p1211
(lp1212
F9.188189608517452e-06
aF83.33064924638418
asS'bs_RXN_11473'
p1213
(lp1214
F3.405483663060807e-09
aF7.2081718101195085e-09
asS'ms_ALDHDEHYDROG_RXN'
p1215
(lp1216
F-999.9999918181807
aF999.9999918181817
asS'bs_ALDEHYDE_OXIDASE_RXN_CPD_371_OXYGEN_MOLECULE_WATER__CPD_195_HYDROGEN_PEROXIDE_PROTON_64_'
p1217
(lp1218
F-999.9999918174419
aF999.9999918203814
asS'ms_RXN_13193_CPD1F_130_NADPH_PROTON_OXYGEN_MOLECULE__CPD1F_133_NADP_WATER_61_'
p1219
(lp1220
F-1000.0000009090918
aF1000.0000009090903
asS'ms_EC_2_7_7_1'
p1221
(lp1222
F-999.9994376151392
aF999.9999191120438
asS'bs_AMYLOMALT_RXN'
p1223
(lp1224
F-1.8181329545187858e-08
aF-1.822085783289269e-08
asS'ms_RXN_4201'
p1225
(lp1226
F-999.9999918181397
aF999.9999918181819
asS'bs_RXN_4201'
p1227
(lp1228
F-999.999991818182
aF999.9999918181815
asS'bs_EC_3_1_3_67'
p1229
(lp1230
F9.080902073079524e-06
aF999.99999181898
asS'ms_RXN_9654'
p1231
(lp1232
F-999.9992285570964
aF217.15472230595805
asS'ms_RXN_6222_BETA_D_FRUCTOSE_CPD_12575__UDP_SUCROSE_PROTON_46_'
p1233
(lp1234
F-1000.000000909091
aF1000.0000009090901
asS'ms_RXN_9651'
p1235
(lp1236
F-999.9992285320357
aF217.1222805036407
asS'ms_RXN_9650'
p1237
(lp1238
F-999.9992279284064
aF217.13099581935785
asS'ms_RXN_9653'
p1239
(lp1240
F-999.9992285143906
aF217.12469957097946
asS'ms_RXN_9652'
p1241
(lp1242
F-999.9992277574132
aF217.15490401850107
asS'ms_RXN_13710'
p1243
(lp1244
F-1000.0000009090917
aF1000.0000009090915
asS'ms_RXN_11503'
p1245
(lp1246
F-1000.0000009157344
aF1000.0000009096233
asS'ms_RXN_6222_BETA_D_FRUCTOSE_GDP_D_GLUCOSE__GDP_SUCROSE_PROTON_50_'
p1247
(lp1248
F9.080907077263346e-06
aF999.9999918181852
asS'ms_RXN_10856'
p1249
(lp1250
F-999.9999827294375
aF-9.086412793218269e-06
asS'ms_RXN_10857'
p1251
(lp1252
F-999.9999827283708
aF-9.085224041350927e-06
asS'ms_RXN_13712'
p1253
(lp1254
F-1000.0000009090887
aF1000.0000009090915
asS'ms_RXN0_1483'
p1255
(lp1256
F-499.9999777322739
aF499.99997774243974
asS'bs_RXN_4201_CPD_12575_CPD_3402__CPD_4122_UDP_PROTON_40_'
p1257
(lp1258
F-999.9999918181818
aF999.9999918181816
asS'ms_RXNQT_4345_CPDQT_27_L_ALPHA_ALANINE__CPDQT_340_PYRUVATE_45_'
p1259
(lp1260
F-1000.0000009090909
aF1000.0000009090905
asS'bs_RXN_9290'
p1261
(lp1262
F-1000.0000009090908
aF1000.0000009090908
asS'ms_ADENYLYLSULFATASE_RXN'
p1263
(lp1264
F-1000.0000009090904
aF1000.0000009090904
asS'bs_EC_1_1_1_170'
p1265
(lp1266
F-1000.0000009090909
aF1000.0000009090908
asS'bs_PSEUDOURIDYLATE_SYNTHASE_RXN'
p1267
(lp1268
F9.080385836604733e-06
aF999.9999918181818
asS'bs_ALDEHYDE_OXIDASE_RXN_METHYL_GLYOXAL_OXYGEN_MOLECULE_WATER__PYRUVATE_HYDROGEN_PEROXIDE_PROTON_72_'
p1269
(lp1270
F-999.9999827368084
aF1000.0000009090905
asS'bs_RXN66_26_5_ALPHA_CHOLESTA_724_DIEN_3_BETA_OL_NADPH_OXYGEN_MOLECULE_PROTON__CPD_8646_NADP_WATER_86_'
p1271
(lp1272
F-1000.0000009090907
aF1000.0000009090908
asS'ms_MAL_DEH_GLYOX_RXN'
p1273
(lp1274
F-1000.0000009090908
aF1000.0000009090908
asS'bs_PRPPSYN_RXN'
p1275
(lp1276
F0.0006149711844583468
aF1000.0000009108685
asS'ms_ALDHDEHYDROG_RXN_CPD_8693_NAD_WATER__5Z8Z11Z14Z17Z_EICOSAPENTAENOATE_NADH_PROTON_64_'
p1277
(lp1278
F-999.9999918181547
aF999.9999918182108
asS'ms__2_4_1_210_RXN_CPD_12575_LIMONIN_WATER__UDP_GLUCOSYL_LIMONIN_PROTON_53_'
p1279
(lp1280
F-999.9999918181809
aF999.9999918181818
asS'ms__2_4_1_239_RXN_CPD_12575_CPD1F_453__UDP_CPD_8067_PROTON_41_'
p1281
(lp1282
F-1000.0000009090908
aF1000.0000009091061
asS'ms_PREPHENATEDEHYDRAT_RXN'
p1283
(lp1284
F-999.9999308118411
aF999.9997829791247
asS'ms_RXN_11212'
p1285
(lp1286
F-1000.0000009090907
aF999.9999827427932
asS'ms__1_2_1_27_RXN_CH3_MALONATE_S_ALD_CO_A_NAD_WATER__PROPIONYL_COA_HCO3_NADH_PROTON_66_'
p1287
(lp1288
F-1000.0000009090911
aF999.9999827434176
asS'bs_RXN_12994_CPD_14422_NADH_PROTON__CPD_14419_NAD_37_'
p1289
(lp1290
F-1000.0000009091341
aF1000.0000009090907
asS'bs_NQOR_RXN_NADH_CPD_9718_PROTON__CPD_12125_NAD_36_'
p1291
(lp1292
F-1000.0000009090909
aF1000.0000009090908
asS'bs_ESTRADIOL_17_BETA_DEHYDROGENASE_RXN'
p1293
(lp1294
F-1000.0000009090916
aF1000.0000009091083
asS'ms_RXN_11002'
p1295
(lp1296
F1.8161818073993866e-05
aF1000.000000909091
asS'ms__1_1_1_51_RXN_TESTOSTERONE_NADP__ANDROST4ENE_NADPH_PROTON_44_'
p1297
(lp1298
F-1000.0000009090908
aF1000.0000009090907
asS'ms_PYRUVATE_DECARBOXYLASE_RXN_GLYOX_PROTON__CARBON_DIOXIDE_FORMALDEHYDE_42_'
p1299
(lp1300
F4.5418526480105407e-05
aF912.4147008471198
asS'ms_RXN_1382'
p1301
(lp1302
F-98.21210911190612
aF95.69631462840897
asS'ms_NQOR_RXN_NADH_CPD_9718_PROTON__CPD_12125_NAD_36_'
p1303
(lp1304
F-1000.0000009090916
aF1000.0000009090908
asS'bs_RXN0_1441'
p1305
(lp1306
F-999.9999918181412
aF999.9999918181808
asS'bs_RXN_12300'
p1307
(lp1308
F-999.9999918181808
aF-9.080907951125377e-06
asS'bs_RXN_12303'
p1309
(lp1310
F-499.99959716015024
aF-9.070900996354053e-06
asS'bs_RXN_4702_CPD_12575_BIOCHANIN_A__CPD_4563_UDP_36_'
p1311
(lp1312
F-999.9999918181815
aF999.9999918181843
asS'bs_SINAPATE_1_GLUCOSYLTRANSFERASE_RXN'
p1313
(lp1314
F-1000.0000009098137
aF1000.00000090909
asS'bs_SERINE__PYRUVATE_AMINOTRANSFERASE_RXN'
p1315
(lp1316
F-1000.0000009090905
aF1000.0000009090904
asS'ms_GLYOXYLATE_REDUCTASE_NADP__RXN'
p1317
(lp1318
F-1000.0000009090905
aF1000.0000009140253
asS'bs_RXNQT_4345_CPDQT_27_GLT__CPDQT_340_2_KETOGLUTARATE_40_'
p1319
(lp1320
F-1000.0000009090917
aF1000.0000009090907
asS'ms_RXN_2961'
p1321
(lp1322
F-840.1826948971666
aF-3.633770090610099e-05
asS'ms_RXN_4702_CPD_12575_BIOCHANIN_A__CPD_4563_UDP_36_'
p1323
(lp1324
F-999.9999918181809
aF999.9999918181875
asS'bs_DEOXYCYTIDINE_KINASE_RXN_DEOXYCYTIDINE_DUTP__DCMP_DUDP_PROTON_37_'
p1325
(lp1326
F-1000.000000909089
aF999.9999645696679
asS'ms_SUCROSE_1F_FRUCTOSYLTRANSFERASE_RXN_SUCROSE__1_KESTOTRIOSE_GLC_27_'
p1327
(lp1328
F-1000.000000909091
aF1000.0000009090895
asS'bs_FLAVONADPREDUCT_RXN'
p1329
(lp1330
F2.7414499424794454e-05
aF44.441863635644026
asS'bs_RXN_7622_P_HYDROXY_PHENYLPYRUVATE_NADPH_PROTON__CPD_2222_NADP_53_'
p1331
(lp1332
F-1000.0000009090909
aF1000.0000009090904
asS'ms_LEGHEMOGLOBIN_REDUCTASE_RXN_NADH_CPD_10494__NAD_CPD_10495_PROTON_37_'
p1333
(lp1334
F-1000.0000009091091
aF1000.0000009090907
asS'ms_PPGPPSYN_RXN'
p1335
(lp1336
F-999.9999918181827
aF999.9999918181796
asS'ms_R9_RXN'
p1337
(lp1338
F-1000.0000009090909
aF1000.0000009090905
asS'bs_RXN_4319_CPD_12575_CPD_3631__CPD_4222_UDP_PROTON_40_'
p1339
(lp1340
F-999.9999918181809
aF999.999991818179
asS'ms_RXN_12448'
p1341
(lp1342
F-1000.0000009090908
aF999.999982733939
asS'ms_RXN_2205'
p1343
(lp1344
F-1000.0000009090907
aF1000.0000009090905
asS'bs_NADH_DEHYDROGENASE_RXN'
p1345
(lp1346
F-1000.0000009090919
aF1000.0000009090905
asS'bs_RXN_10715'
p1347
(lp1348
F-999.9999918212163
aF-9.086979426288716e-06
asS'ms_RXN0_1441'
p1349
(lp1350
F-999.9999918181874
aF999.9999918181808
asS'bs__2TRANSKETO_RXN_chloroplast'
p1351
(lp1352
F-142.79627930530836
aF-7.747802435457431e-05
asS'bs_GLUCOSYLCERAMIDASE_RXN'
p1353
(lp1354
F9.086880289914829e-06
aF999.9999827326824
asS'bs_ESTRADIOL_17_BETA_DEHYDROGENASE_RXN_NAD_CPD_352__NADH_ESTRONE_PROTON_33_'
p1355
(lp1356
F-1000.0000009090909
aF1000.0000009090908
asS'bs_RXN_5482_CPD_12575_NADPH_PROTON__UDP_L_RHAMNOSE_NADP_WATER_50_'
p1357
(lp1358
F-1000.0000009090918
aF999.999964564164
asS'ms_RXN_5286'
p1359
(lp1360
F-37.49935304139314
aF999.9996738762785
asS'ms_RXN_5285'
p1361
(lp1362
F-999.9996673622182
aF37.499352508400364
asS'bs_RXN_13614'
p1363
(lp1364
F9.07825381071696e-06
aF999.9999918168359
asS'bs_RXN_2602'
p1365
(lp1366
F-999.9992400387997
aF999.9999736656489
asS'bs_RXN_13617'
p1367
(lp1368
F5.662373480173902e-09
aF5.634573196214665e-09
asS'ms_RXN_7774'
p1369
(lp1370
F-1000.000000909091
aF299.9992729359087
asS'ms_EC_1_14_19_2'
p1371
(lp1372
F0.0003097996651620933
aF191.61628747119977
asS'ms_RXNQT_4366'
p1373
(lp1374
F9.080989187541734e-06
aF999.9999918181834
asS'ms_EC_3_6_5_2'
p1375
(lp1376
F-1000.0000009090912
aF1000.0000009090897
asS'bs_RXN_13163'
p1377
(lp1378
F-166.6640257738061
aF-3.6378179940133374e-05
asS'bs_RXN_12242_CPD_7526_CPD_9731__CPD_7496_CPD_12117_38_'
p1379
(lp1380
F-1000.00000090909
aF1000.0000009094147
asS'ms_RXN_7782'
p1381
(lp1382
F8.362576325989309e-10
aF-3.806346768375757e-07
asS'ms_PREPHENATE_ASP_TRANSAMINE_RXN'
p1383
(lp1384
F-1000.000000909086
aF999.9998936803694
asS'ms_SUCROSE_SYNTHASE_RXN_CPD_12575_BETA_D_FRUCTOSE__SUCROSE_UDP_PROTON_46_'
p1385
(lp1386
F-1000.0000009090909
aF1000.0000009090901
asS'ms_RXN_7622'
p1387
(lp1388
F-1000.0000009090909
aF1000.0000009090905
asS'bs_RXN_9290_CPD_9905_NADP__CPD_7092_NADPH_PROTON_37_'
p1389
(lp1390
F-1000.0000009090907
aF1000.0000009090909
asS'ms_CERAMIDE_GLUCOSYLTRANSFERASE_RXN'
p1391
(lp1392
F9.092087098942127e-06
aF999.9999827333246
asS'bs_ALDEHYDE_OXIDASE_RXN_CPD_8693_OXYGEN_MOLECULE_WATER__5Z8Z11Z14Z17Z_EICOSAPENTAENOATE_HYDROGEN_PEROXIDE_PROTON_89_'
p1393
(lp1394
F-999.9999918181572
aF999.9999918182118
asS'bs_RXN_3541'
p1395
(lp1396
F-749.9999802328784
aF999.9999736378179
asS'bs_RXN_13188'
p1397
(lp1398
F-1000.0000009090907
aF1000.0000009090903
asS'bs_RIBULP3EPIM_RXN'
p1399
(lp1400
F-393.5698606730283
aF666.6657281087399
asS'ms_RXN_4319_CPD_12575_CPD_3631__CPD_4222_UDP_PROTON_40_'
p1401
(lp1402
F-999.9999918181809
aF999.9999918181816
asS'bs_RXN_13710'
p1403
(lp1404
F-1000.0000009090916
aF1000.0000009090915
asS'ms_RXN_9290'
p1405
(lp1406
F-1000.0000009090907
aF1000.0000009090911
asS'ms_RIBULP3EPIM_RXN'
p1407
(lp1408
F-393.9541742082839
aF666.6657181313196
asS'bs_RXN_10625'
p1409
(lp1410
F-37.49960217438878
aF1000.0000009090917
asS'ms_RXN_2102'
p1411
(lp1412
F9.080906527343115e-06
aF999.999991818182
asS'bs_RXN_8772'
p1413
(lp1414
F-2.6248619940567116e-09
aF-2.8344853768383655e-09
asS'ms_RXN_13712_44_DIMETHYL_824_CHOLESTADIENOL_NADH_OXYGEN_MOLECULE_PROTON__CPD_4577_NAD_WATER_79_'
p1415
(lp1416
F-1000.0000009090908
aF1000.0000009090907
asS'bs_R9_RXN'
p1417
(lp1418
F-1000.0000009090912
aF1000.0000009092867
asS'bs_RXN_12994_CPD_14422_NADPH_PROTON__CPD_14419_NADP_39_'
p1419
(lp1420
F-1000.0000009090909
aF1000.0000009090915
asS'ms_EC_3_1_3_46'
p1421
(lp1422
F-999.9999918182018
aF999.9999918183407
asS'ms_TRANSENOYLCOARED_RXN_LAUROYLCOA_CPD_NADP__CPD_7222_NADPH_PROTON_43_'
p1423
(lp1424
F-999.9999918137463
aF-9.083332062244056e-06
asS'ms_DEOXYCYTIDINE_KINASE_RXN_DEOXYCYTIDINE_TTP__DCMP_TDP_PROTON_35_'
p1425
(lp1426
F-1000.0000009090904
aF999.9998620935884
asS'ms_ALDHDEHYDROG_RXN_CPD_7620_NAD_WATER__CPD_7619_NADH_PROTON_41_'
p1427
(lp1428
F-999.999991818181
aF999.9999918181809
asS'ms_RXN_9290_CPD_9905_NAD__CPD_7092_NADH_PROTON_35_'
p1429
(lp1430
F-1000.0000009090909
aF1000.0000009090895
asS'ms_RXN_13712_44_DIMETHYL_824_CHOLESTADIENOL_NADPH_OXYGEN_MOLECULE_PROTON__CPD_4577_NADP_WATER_81_'
p1431
(lp1432
F-1000.0000009091034
aF1000.0000009090913
asS'ms_EC_1_14_13_68'
p1433
(lp1434
F-6.171547654149509e-13
aF2.84382133934489e-12
asS'ms_GDPPYPHOSKIN_RXN'
p1435
(lp1436
F-999.9999918181761
aF999.9999918181798
asS'bs_RXN_9290_CPD_9905_NAD__CPD_7092_NADH_PROTON_35_'
p1437
(lp1438
F-1000.0000009090907
aF1000.0000009090927
asS'bs_RXN66_18_CPD_8613_NAD__CPD_8614_NADH_CARBON_DIOXIDE_43_'
p1439
(lp1440
F-1000.0000009090917
aF1000.0000009090915
asS'bs_RXN_13710_CPD_4184_NADH_OXYGEN_MOLECULE_PROTON__CPD_8619_NAD_WATER_57_'
p1441
(lp1442
F-1000.0000009090913
aF1000.0000009090674
asS'bs_RXN_10961'
p1443
(lp1444
F-999.9999188918266
aF1000.0000009341338
asS'ms_RXN_12126_CPD_12575_CPD_4162__UDP_CPD_11606_PROTON_41_'
p1445
(lp1446
F-999.9999918202192
aF999.9999918160054
asS'ms_RXN_12126'
p1447
(lp1448
F-999.9999918202141
aF999.9999918160464
asS'bs_RXN_13452_CPD_12575_CPD_14427__UDP_CPD_14434_PROTON_42_'
p1449
(lp1450
F-999.9999918181787
aF999.9999918181875
asS'ms_EC_1_6_5_4'
p1451
(lp1452
F-1000.0000009092496
aF1000.0000009090903
asS'bs_HYDROXYPYRUVATE_REDUCTASE_RXN_GLYCERATE_NADP__OH_PYR_NADPH_PROTON_36_'
p1453
(lp1454
F-1000.0000009091902
aF1000.0000009090907
asS'ms_RXN_4803'
p1455
(lp1456
F-999.9999736363643
aF999.9999736363643
asS'ms_RXN_4802'
p1457
(lp1458
F-999.9999736363638
aF999.9999736363644
asS'ms_RXN_4801'
p1459
(lp1460
F-999.9999736363643
aF999.9999736363636
asS'bs_TRANSENOYLCOARED_RXN_LAUROYLCOA_CPD_NADP__CPD_7222_NADPH_PROTON_43_'
p1461
(lp1462
F-999.9999918194062
aF-9.083312970784455e-06
asS'ms_RXN_13163'
p1463
(lp1464
F-166.66402604689216
aF-4.694290551919642e-05
asS'ms_RXN_12128'
p1465
(lp1466
F-999.9999918147646
aF999.9999918151623
asS'ms_EC_3_2_1_26'
p1467
(lp1468
F-999.9999736511484
aF1000.0000009098412
asS'ms_RXN_12086'
p1469
(lp1470
F9.080908437403538e-06
aF999.9999645623551
asS'bs_RXN_1841_1_KESTOTRIOSE_WATER__BETA_D_FRUCTOSE_SUCROSE_45_'
p1471
(lp1472
F-1000.0000009090918
aF1000.0000009090902
asS'ms_ORNITHINE__OXO_ACID_AMINOTRANSFERASE_RXN_L_ORNITHINE_GLYOX__GLY_L_GLUTAMATE_GAMMA_SEMIALDEHYDE_54_'
p1473
(lp1474
F-1000.0000009090908
aF1000.0000009090908
asS'bs_RXN_12669'
p1475
(lp1476
F-999.9999918187788
aF999.9999918175636
asS'bs_RXN_12460'
p1477
(lp1478
F-999.9999918181825
aF999.9999918181799
asS'bs_RXN_9550'
p1479
(lp1480
F1.84790086843833e-05
aF8.67123899143996
asS'bs_RXN_13710_CPD_4184_NADPH_OXYGEN_MOLECULE_PROTON__CPD_8619_NADP_WATER_59_'
p1481
(lp1482
F-1000.0000009090908
aF1000.0000009090905
asS'ms_RXN66_26_5_ALPHA_CHOLESTA_724_DIEN_3_BETA_OL_NADPH_OXYGEN_MOLECULE_PROTON__CPD_8646_NADP_WATER_86_'
p1483
(lp1484
F-1000.0000009090908
aF1000.000000909091
asS'ms_BHBDCLOS_RXN'
p1485
(lp1486
F-999.999991818511
aF999.99999181775
asS'bs_RXN_11002'
p1487
(lp1488
F1.816181883842078e-05
aF1000.0000009090912
asS'bs_LEGHEMOGLOBIN_REDUCTASE_RXN_NADH_CPD_10494__NAD_CPD_10495_PROTON_37_'
p1489
(lp1490
F-1000.000000909091
aF1000.0000009090909
asS'bs_RXN_8473_CPD_12575_CPD_8663__CPD_8667_UDP_33_'
p1491
(lp1492
F-999.9999918181809
aF999.9999918181816
asS'ms_O_SUCCINYLBENZOATE_COA_LIG_RXN'
p1493
(lp1494
F-999.9999918201698
aF-9.08407846933293e-06
asS'bs_RXN66_23_CPD_8619_NAD__CPD_8620_CARBON_DIOXIDE_NADH_43_'
p1495
(lp1496
F-1000.0000009090907
aF1000.0000009090915
asS'ms_ADPREDUCT_RXN'
p1497
(lp1498
F-11.10843088049935
aF33.33071707601038
asS'ms_STEROL_GLUCOSYLTRANSFERASE_RXN_CPD_12575_CPD_8610__UDP_CPD_11608_PROTON_41_'
p1499
(lp1500
F-5.136994533705894e-09
aF-5.069420914414953e-09
asS'ms_GLUTAMINE__TRNA_LIGASE_RXN'
p1501
(lp1502
F-999.9999827272693
aF-1.81717868239384e-05
asS'ms_EC_1_6_99_5'
p1503
(lp1504
F-1000.0000009090911
aF1000.000000909163
asS'bs_LEGHEMOGLOBIN_REDUCTASE_RXN'
p1505
(lp1506
F-1000.0000009090916
aF1000.0000009090908
asS'ms_RXN_8088'
p1507
(lp1508
F-999.9999918181843
aF999.9999918181815
asS'bs_ASPARAGINE__TRNA_LIGASE_RXN'
p1509
(lp1510
F-999.9999918177963
aF999.9999918181798
asS'bs_RXN66_23_CPD_8619_NADP__CPD_8620_CARBON_DIOXIDE_NADPH_45_'
p1511
(lp1512
F-1000.0000009090907
aF1000.0000009090908
asS'ms_RXN_8475'
p1513
(lp1514
F-999.9999918181843
aF999.9999918181818
asS'ms_RXN_12669'
p1515
(lp1516
F-999.9999918188516
aF999.9999918176516
asS'ms_RXN_10961'
p1517
(lp1518
F-999.9999191252659
aF1000.00000093366
asS'ms_SINAPINE_ESTERASE_RXN'
p1519
(lp1520
F-999.9999918141938
aF999.9999918222251
asS'bs_RXN_8850'
p1521
(lp1522
F-999.9998973391364
aF11.108487445242114
asS'ms_BRANCHED_CHAINAMINOTRANSFERILEU_RXN'
p1523
(lp1524
F-166.66409576544393
aF-5.622127281704225e-05
asS'ms_RXNQT_4345_CPDQT_27_MET__CPDQT_340_CPD_479_32_'
p1525
(lp1526
F-1000.0000009090903
aF1000.0000009090908
asS'bs_STEROL_GLUCOSYLTRANSFERASE_RXN'
p1527
(lp1528
F-8.553666786540206e-09
aF-8.88559630707777e-09
asS'bs_EC_2_6_1_13'
p1529
(lp1530
F-1000.0000009090907
aF1000.0000009090917
asS'ms_RXN_11632_L_DELTA1_PYRROLINE_5_CARBOXYLATE_NADP_WATER__GLT_NADPH_PROTON_62_'
p1531
(lp1532
F-1000.0000009090907
aF1000.0000009090908
asS'bs_R223_RXN'
p1533
(lp1534
F1.816479679306608e-05
aF1000.0000009090903
asS'bs_SUCROSE_1F_FRUCTOSYLTRANSFERASE_RXN_SUCROSE__1_KESTOTRIOSE_GLC_27_'
p1535
(lp1536
F-1000.0000009090066
aF1000.0000009091146
asS'bs_RXN_11186'
p1537
(lp1538
F-999.9998652906819
aF499.99963262385836
asS'ms_URIDINEKIN_RXN'
p1539
(lp1540
F-1000.000000909094
aF1000.0000009090882
asS'bs_RXN_2205_2_OXO_5_METHYLTHIOPENTANOIC_ACID_L_ALPHA_ALANINE__HOMOMETHIONINE_PYRUVATE_74_'
p1541
(lp1542
F-1000.000000909091
aF1000.0000009090907
asS'ms_DCTP_PYROPHOSPHATASE_RXN'
p1543
(lp1544
F-1000.000000909095
aF1000.0000010929461
asS'ms_ALCOHOL_DEHYDROG_RXN'
p1545
(lp1546
F9.080906732131992e-06
aF999.9999918181798
asS'bs_TRANSENOYLCOARED_RXN_CPD_196_NADP__CPD0_2108_NADPH_PROTON_37_'
p1547
(lp1548
F-999.9999918189236
aF999.9999918175155
asS'ms_RXN_11881'
p1549
(lp1550
F-999.9999918181816
aF999.9999918181826
asS'bs_RXN_8092'
p1551
(lp1552
F-999.9999827339406
aF999.9998797645383
asS'ms_TREHALA_RXN'
p1553
(lp1554
F2.7256057648775017e-05
aF999.9999918191605
asS'ms_RXN_8409'
p1555
(lp1556
F-999.9999918181849
aF999.9999372996181
asS'bs_RXN_8094'
p1557
(lp1558
F-999.9999918181809
aF999.9999918181808
asS'bs_RXN_13162_FARNESYL_PP_NADH_PROTON__SQUALENE_NAD_PPI_42_'
p1559
(lp1560
F-1000.0000009090915
aF1000.0000009090909
asS'bs_BRANCHED_CHAINAMINOTRANSFERILEU_RXN'
p1561
(lp1562
F-166.66409608279457
aF-5.5996721199880954e-05
asS'ms_RXN_13188_44_DIMETHYL_5ALPHA_CHOLEST_7_EN_3BET_NADPH_OXYGEN_MOLECULE_PROTON__CPD_5846_NADP_WATER_87_'
p1563
(lp1564
F-1000.0000009090907
aF1000.0000009090907
asS'bs_ASNSYNB_RXN'
p1565
(lp1566
F9.135528800467485e-06
aF83.33064955302545
asS'bs_RXN_3443'
p1567
(lp1568
F-1000.0000009090921
aF1000.0000009092945
asS'bs_RXN_4761'
p1569
(lp1570
F-999.9999918181875
aF999.999991818187
asS'bs_URIDINEKIN_RXN'
p1571
(lp1572
F-1000.0000009090948
aF1000.0000009090884
asS'bs_RXN_12242_CPD_7526_UBIQUINONE_8__CPD_7496_CPD_9956_41_'
p1573
(lp1574
F-1000.0000009090901
aF1000.0000009225843
asS'bs_RXN_11503'
p1575
(lp1576
F-1000.0000009166422
aF1000.0000009091536
asS'ms_RXN_10745'
p1577
(lp1578
F-1000.0000009090905
aF1000.0000009090909
asS'bs_RXN_7782'
p1579
(lp1580
F-6.873352063863099e-11
aF8.220944329121858e-10
asS'ms__3PGAREARR_RXN'
p1581
(lp1582
F-999.9999918181702
aF999.9999918181842
asS'ms_RXN_9546'
p1583
(lp1584
F-999.9999918181105
aF-9.080754623531361e-06
asS'ms_RXN_9549'
p1585
(lp1586
F9.132682572897725e-05
aF217.15492862960338
asS'bs__2_4_1_210_RXN_CPD_12575_LIMONIN_WATER__UDP_GLUCOSYL_LIMONIN_PROTON_53_'
p1587
(lp1588
F-999.9999918181818
aF999.9999918181875
asS'ms_RXN_8772_L_ARABITOL_NADP__CPD_12045_NADPH_PROTON_40_'
p1589
(lp1590
F-2.844181368771987e-09
aF1.5984896799265411e-09
asS'ms_RXN_12242_CPD_7526_UBIQUINONE_8__CPD_7496_CPD_9956_41_'
p1591
(lp1592
F-1000.0000009092237
aF1000.0000009090354
asS'ms_FLAVONADPREDUCT_RXN'
p1593
(lp1594
F2.741829048357857e-05
aF44.44185251500432
asS'ms_RXN_13158'
p1595
(lp1596
F4.6942905259578574e-05
aF166.66402675323565
asS'ms_RXN_12490'
p1597
(lp1598
F-6.3297862952962995e-09
aF-6.961997681904956e-09
asS'bs__1TRANSKETO_RXN'
p1599
(lp1600
F-637.3095962219694
aF37.83476139310249
asS'bs_PREPHENATE_ASP_TRANSAMINE_RXN'
p1601
(lp1602
F-1000.0000009104047
aF999.9998936140548
asS'bs_EC_1_6_5_4'
p1603
(lp1604
F-1000.0000009090919
aF1000.0000009090907
asS'bs_GLYC3PDEHYDROG_RXN'
p1605
(lp1606
F-214.9406090310258
aF1000.0000009090915
asS'ms_RXN66_23_CPD_8619_NAD__CPD_8620_CARBON_DIOXIDE_NADH_43_'
p1607
(lp1608
F-1000.0000009090911
aF1000.0000009090915
asS'bs_DCTP_PYROPHOSPHATASE_RXN'
p1609
(lp1610
F-1000.0000009090962
aF1000.000000908483
asS'bs_METBALT_RXN'
p1611
(lp1612
F-166.66407984235178
aF111.10853539901564
asS'bs_ORNITHINE_GLU_AMINOTRANSFORASE_RXN'
p1613
(lp1614
F-1000.0000009090915
aF1000.0000009090907
asS'bs_ALDEHYDE_OXIDASE_RXN'
p1615
(lp1616
F-999.9999918181883
aF999.9999918181808
asS'bs_NQOR_RXN_NADPH_UBIQUINONE_8_PROTON__CPD_9956_NADP_41_'
p1617
(lp1618
F-1000.0000009090908
aF1000.0000009090908
asS'ms_RXN_13709_4_METHYL_824_CHOLESTADIENOL_NADH_OXYGEN_MOLECULE_PROTON__CPD_4702_NAD_WATER_76_'
p1619
(lp1620
F-1000.0000009090905
aF1000.0000009090903
asS'bs_RXN_5482'
p1621
(lp1622
F-1000.0000009090936
aF999.9999645641345
asS'ms_RXN_13334'
p1623
(lp1624
F-999.9999736529267
aF999.999882506154
asS'ms_ORNITHINE__OXO_ACID_AMINOTRANSFERASE_RXN_L_ORNITHINE_CPD_479__MET_L_GLUTAMATE_GAMMA_SEMIALDEHYDE_56_'
p1625
(lp1626
F-1000.0000009090909
aF1000.0000009090903
asS'bs_FPPSYN_RXN'
p1627
(lp1628
F0.0002992298472877797
aF37.499665598625214
asS'bs_RXN_11881'
p1629
(lp1630
F-999.9999918181871
aF999.9999918181867
asS'ms__2_4_1_218_RXN_CPD_12575_HYDROQUINONE__HYDROQUINONE_O_BETA_D_GLUCOPYRANOSIDE_UDP_PROTON_73_'
p1631
(lp1632
F-999.9999918181554
aF999.9999918181875
asS'bs_RXN_10745'
p1633
(lp1634
F-1000.0000009090921
aF1000.0000009090907
asS'ms_RXN_12123'
p1635
(lp1636
F-1000.0000009090908
aF1000.0000009090915
asS'ms_RXN_12125'
p1637
(lp1638
F-999.9999918234766
aF999.9999918159896
asS'ms_RXN_11619'
p1639
(lp1640
F-999.9999918160951
aF999.9999918202628
asS'bs_RXN_11619'
p1641
(lp1642
F-999.9999918160971
aF999.9999918202581
asS'bs_SUCROSE_SYNTHASE_RXN'
p1643
(lp1644
F-1000.0000009090911
aF1000.0000009090902
asS'bs_ALDOSE_1_EPIMERASE_RXN'
p1645
(lp1646
F-999.9999554759728
aF1000.00000090909
asS'ms_RXN_12084'
p1647
(lp1648
F-1000.0000009090907
aF1000.0000009090918
asS'bs_BHBDCLOS_RXN'
p1649
(lp1650
F-999.9999918185025
aF999.9999918177639
asS'ms_PHOSPHOGLUCMUT_RXN'
p1651
(lp1652
F-1000.00000090909
aF1000.0000009090899
asS'ms_RXN_12127_CPD_12575_CHOLESTEROL__UDP_CPD_556_PROTON_42_'
p1653
(lp1654
F-999.9999918198416
aF999.9999918168428
asS'bs_RXN_9673'
p1655
(lp1656
F-1000.0000009203555
aF1000.0000009090896
asS'bs_GUANYL_KIN_RXN'
p1657
(lp1658
F0.00010901394664914798
aF1000.0000009390053
asS'ms_DEOXYCYTIDINE_KINASE_RXN'
p1659
(lp1660
F-1000.0000009094848
aF-1.816181855114591e-05
asS'bs_GAPOXNPHOSPHN_RXN'
p1661
(lp1662
F-999.9999827339369
aF1000.000000909091
asS'bs_RXN_9772'
p1663
(lp1664
F-999.9999918249869
aF-9.08628508329348e-06
asS'ms_H2PTEROATESYNTH_RXN'
p1665
(lp1666
F-6.711015645942805e-09
aF2.216190334586362e-08
asS'bs_RXN66_26'
p1667
(lp1668
F-1000.0000009090907
aF1000.0000009090917
asS'ms_SUCC_FUM_OXRED_RXN'
p1669
(lp1670
F-1000.0000009092946
aF299.999371971874
asS'bs_RXN66_23'
p1671
(lp1672
F-1000.0000009090908
aF1000.0000009091051
asS'ms_RXN66_23_CPD_8619_NADP__CPD_8620_CARBON_DIOXIDE_NADPH_45_'
p1673
(lp1674
F-1000.0000009090903
aF1000.000000909103
asS'ms_RXN_12242_CPD_7526_CPD_9731__CPD_7496_CPD_12117_38_'
p1675
(lp1676
F-1000.0000009090901
aF1000.0000009090909
as.